
aes.elf:     file format elf32-littlearm

Sections:
Idx Name          Size      VMA       LMA       File off  Algn
  0 .isr_vector   00000188  08000000  08000000  00001000  2**0
                  CONTENTS, ALLOC, LOAD, READONLY, DATA
  1 .text         00002c04  08000190  08000190  00001190  2**4
                  CONTENTS, ALLOC, LOAD, READONLY, CODE
  2 .rodata       00000094  08002d94  08002d94  00003d94  2**2
                  CONTENTS, ALLOC, LOAD, READONLY, DATA
  3 .ARM.extab    00000000  08002e28  08002e28  0000416c  2**0
                  CONTENTS
  4 .ARM          00000008  08002e28  08002e28  00003e28  2**2
                  CONTENTS, ALLOC, LOAD, READONLY, DATA
  5 .preinit_array 00000000  08002e30  08002e30  0000416c  2**0
                  CONTENTS, ALLOC, LOAD, DATA
  6 .init_array   00000004  08002e30  08002e30  00003e30  2**2
                  CONTENTS, ALLOC, LOAD, READONLY, DATA
  7 .fini_array   00000004  08002e34  08002e34  00003e34  2**2
                  CONTENTS, ALLOC, LOAD, READONLY, DATA
  8 .data         0000016c  20000000  08002e38  00004000  2**2
                  CONTENTS, ALLOC, LOAD, DATA
  9 .ccmram       00000000  10000000  10000000  0000416c  2**0
                  CONTENTS
 10 .bss          00000170  2000016c  2000016c  0000416c  2**2
                  ALLOC
 11 ._user_heap_stack 00000604  200002dc  200002dc  0000416c  2**0
                  ALLOC
 12 .ARM.attributes 00000030  00000000  00000000  0000416c  2**0
                  CONTENTS, READONLY
 13 .debug_info   00004195  00000000  00000000  0000419c  2**0
                  CONTENTS, READONLY, DEBUGGING, OCTETS
 14 .debug_abbrev 00001279  00000000  00000000  00008331  2**0
                  CONTENTS, READONLY, DEBUGGING, OCTETS
 15 .debug_aranges 000004f8  00000000  00000000  000095b0  2**3
                  CONTENTS, READONLY, DEBUGGING, OCTETS
 16 .debug_rnglists 00000393  00000000  00000000  00009aa8  2**0
                  CONTENTS, READONLY, DEBUGGING, OCTETS
 17 .debug_macro  000200a4  00000000  00000000  00009e3b  2**0
                  CONTENTS, READONLY, DEBUGGING, OCTETS
 18 .debug_line   000062f2  00000000  00000000  00029edf  2**0
                  CONTENTS, READONLY, DEBUGGING, OCTETS
 19 .debug_str    000c06e2  00000000  00000000  000301d1  2**0
                  CONTENTS, READONLY, DEBUGGING, OCTETS
 20 .comment      00000043  00000000  00000000  000f08b3  2**0
                  CONTENTS, READONLY
 21 .debug_frame  00001750  00000000  00000000  000f08f8  2**2
                  CONTENTS, READONLY, DEBUGGING, OCTETS
 22 .debug_line_str 0000005b  00000000  00000000  000f2048  2**0
                  CONTENTS, READONLY, DEBUGGING, OCTETS

Disassembly of section .text:

08000190 <__do_global_dtors_aux>:
 8000190:	b510      	push	{r4, lr}
 8000192:	4c05      	ldr	r4, [pc, #20]	@ (80001a8 <__do_global_dtors_aux+0x18>)
 8000194:	7823      	ldrb	r3, [r4, #0]
 8000196:	b933      	cbnz	r3, 80001a6 <__do_global_dtors_aux+0x16>
 8000198:	4b04      	ldr	r3, [pc, #16]	@ (80001ac <__do_global_dtors_aux+0x1c>)
 800019a:	b113      	cbz	r3, 80001a2 <__do_global_dtors_aux+0x12>
 800019c:	4804      	ldr	r0, [pc, #16]	@ (80001b0 <__do_global_dtors_aux+0x20>)
 800019e:	f3af 8000 	nop.w
 80001a2:	2301      	movs	r3, #1
 80001a4:	7023      	strb	r3, [r4, #0]
 80001a6:	bd10      	pop	{r4, pc}
 80001a8:	2000016c 	.word	0x2000016c
 80001ac:	00000000 	.word	0x00000000
 80001b0:	08002d7c 	.word	0x08002d7c

080001b4 <frame_dummy>:
 80001b4:	b508      	push	{r3, lr}
 80001b6:	4b03      	ldr	r3, [pc, #12]	@ (80001c4 <frame_dummy+0x10>)
 80001b8:	b11b      	cbz	r3, 80001c2 <frame_dummy+0xe>
 80001ba:	4903      	ldr	r1, [pc, #12]	@ (80001c8 <frame_dummy+0x14>)
 80001bc:	4803      	ldr	r0, [pc, #12]	@ (80001cc <frame_dummy+0x18>)
 80001be:	f3af 8000 	nop.w
 80001c2:	bd08      	pop	{r3, pc}
 80001c4:	00000000 	.word	0x00000000
 80001c8:	20000170 	.word	0x20000170
 80001cc:	08002d7c 	.word	0x08002d7c

080001d0 <strlen>:
 80001d0:	4603      	mov	r3, r0
 80001d2:	f813 2b01 	ldrb.w	r2, [r3], #1
 80001d6:	2a00      	cmp	r2, #0
 80001d8:	d1fb      	bne.n	80001d2 <strlen+0x2>
 80001da:	1a18      	subs	r0, r3, r0
 80001dc:	3801      	subs	r0, #1
 80001de:	4770      	bx	lr

080001e0 <memchr>:
 80001e0:	f001 01ff 	and.w	r1, r1, #255	@ 0xff
 80001e4:	2a10      	cmp	r2, #16
 80001e6:	db2b      	blt.n	8000240 <memchr+0x60>
 80001e8:	f010 0f07 	tst.w	r0, #7
 80001ec:	d008      	beq.n	8000200 <memchr+0x20>
 80001ee:	f810 3b01 	ldrb.w	r3, [r0], #1
 80001f2:	3a01      	subs	r2, #1
 80001f4:	428b      	cmp	r3, r1
 80001f6:	d02d      	beq.n	8000254 <memchr+0x74>
 80001f8:	f010 0f07 	tst.w	r0, #7
 80001fc:	b342      	cbz	r2, 8000250 <memchr+0x70>
 80001fe:	d1f6      	bne.n	80001ee <memchr+0xe>
 8000200:	b4f0      	push	{r4, r5, r6, r7}
 8000202:	ea41 2101 	orr.w	r1, r1, r1, lsl #8
 8000206:	ea41 4101 	orr.w	r1, r1, r1, lsl #16
 800020a:	f022 0407 	bic.w	r4, r2, #7
 800020e:	f07f 0700 	mvns.w	r7, #0
 8000212:	2300      	movs	r3, #0
 8000214:	e8f0 5602 	ldrd	r5, r6, [r0], #8
 8000218:	3c08      	subs	r4, #8
 800021a:	ea85 0501 	eor.w	r5, r5, r1
 800021e:	ea86 0601 	eor.w	r6, r6, r1
 8000222:	fa85 f547 	uadd8	r5, r5, r7
 8000226:	faa3 f587 	sel	r5, r3, r7
 800022a:	fa86 f647 	uadd8	r6, r6, r7
 800022e:	faa5 f687 	sel	r6, r5, r7
 8000232:	b98e      	cbnz	r6, 8000258 <memchr+0x78>
 8000234:	d1ee      	bne.n	8000214 <memchr+0x34>
 8000236:	bcf0      	pop	{r4, r5, r6, r7}
 8000238:	f001 01ff 	and.w	r1, r1, #255	@ 0xff
 800023c:	f002 0207 	and.w	r2, r2, #7
 8000240:	b132      	cbz	r2, 8000250 <memchr+0x70>
 8000242:	f810 3b01 	ldrb.w	r3, [r0], #1
 8000246:	3a01      	subs	r2, #1
 8000248:	ea83 0301 	eor.w	r3, r3, r1
 800024c:	b113      	cbz	r3, 8000254 <memchr+0x74>
 800024e:	d1f8      	bne.n	8000242 <memchr+0x62>
 8000250:	2000      	movs	r0, #0
 8000252:	4770      	bx	lr
 8000254:	3801      	subs	r0, #1
 8000256:	4770      	bx	lr
 8000258:	2d00      	cmp	r5, #0
 800025a:	bf06      	itte	eq
 800025c:	4635      	moveq	r5, r6
 800025e:	3803      	subeq	r0, #3
 8000260:	3807      	subne	r0, #7
 8000262:	f015 0f01 	tst.w	r5, #1
 8000266:	d107      	bne.n	8000278 <memchr+0x98>
 8000268:	3001      	adds	r0, #1
 800026a:	f415 7f80 	tst.w	r5, #256	@ 0x100
 800026e:	bf02      	ittt	eq
 8000270:	3001      	addeq	r0, #1
 8000272:	f415 3fc0 	tsteq.w	r5, #98304	@ 0x18000
 8000276:	3001      	addeq	r0, #1
 8000278:	bcf0      	pop	{r4, r5, r6, r7}
 800027a:	3801      	subs	r0, #1
 800027c:	4770      	bx	lr
 800027e:	bf00      	nop

08000280 <__aeabi_uldivmod>:
 8000280:	b953      	cbnz	r3, 8000298 <__aeabi_uldivmod+0x18>
 8000282:	b94a      	cbnz	r2, 8000298 <__aeabi_uldivmod+0x18>
 8000284:	2900      	cmp	r1, #0
 8000286:	bf08      	it	eq
 8000288:	2800      	cmpeq	r0, #0
 800028a:	bf1c      	itt	ne
 800028c:	f04f 31ff 	movne.w	r1, #4294967295	@ 0xffffffff
 8000290:	f04f 30ff 	movne.w	r0, #4294967295	@ 0xffffffff
 8000294:	f000 b96a 	b.w	800056c <__aeabi_idiv0>
 8000298:	f1ad 0c08 	sub.w	ip, sp, #8
 800029c:	e96d ce04 	strd	ip, lr, [sp, #-16]!
 80002a0:	f000 f806 	bl	80002b0 <__udivmoddi4>
 80002a4:	f8dd e004 	ldr.w	lr, [sp, #4]
 80002a8:	e9dd 2302 	ldrd	r2, r3, [sp, #8]
 80002ac:	b004      	add	sp, #16
 80002ae:	4770      	bx	lr

080002b0 <__udivmoddi4>:
 80002b0:	e92d 47f0 	stmdb	sp!, {r4, r5, r6, r7, r8, r9, sl, lr}
 80002b4:	9d08      	ldr	r5, [sp, #32]
 80002b6:	460c      	mov	r4, r1
 80002b8:	2b00      	cmp	r3, #0
 80002ba:	d14e      	bne.n	800035a <__udivmoddi4+0xaa>
 80002bc:	4694      	mov	ip, r2
 80002be:	458c      	cmp	ip, r1
 80002c0:	4686      	mov	lr, r0
 80002c2:	fab2 f282 	clz	r2, r2
 80002c6:	d962      	bls.n	800038e <__udivmoddi4+0xde>
 80002c8:	b14a      	cbz	r2, 80002de <__udivmoddi4+0x2e>
 80002ca:	f1c2 0320 	rsb	r3, r2, #32
 80002ce:	4091      	lsls	r1, r2
 80002d0:	fa20 f303 	lsr.w	r3, r0, r3
 80002d4:	fa0c fc02 	lsl.w	ip, ip, r2
 80002d8:	4319      	orrs	r1, r3
 80002da:	fa00 fe02 	lsl.w	lr, r0, r2
 80002de:	ea4f 471c 	mov.w	r7, ip, lsr #16
 80002e2:	fa1f f68c 	uxth.w	r6, ip
 80002e6:	fbb1 f4f7 	udiv	r4, r1, r7
 80002ea:	ea4f 431e 	mov.w	r3, lr, lsr #16
 80002ee:	fb07 1114 	mls	r1, r7, r4, r1
 80002f2:	ea43 4301 	orr.w	r3, r3, r1, lsl #16
 80002f6:	fb04 f106 	mul.w	r1, r4, r6
 80002fa:	4299      	cmp	r1, r3
 80002fc:	d90a      	bls.n	8000314 <__udivmoddi4+0x64>
 80002fe:	eb1c 0303 	adds.w	r3, ip, r3
 8000302:	f104 30ff 	add.w	r0, r4, #4294967295	@ 0xffffffff
 8000306:	f080 8112 	bcs.w	800052e <__udivmoddi4+0x27e>
 800030a:	4299      	cmp	r1, r3
 800030c:	f240 810f 	bls.w	800052e <__udivmoddi4+0x27e>
 8000310:	3c02      	subs	r4, #2
 8000312:	4463      	add	r3, ip
 8000314:	1a59      	subs	r1, r3, r1
 8000316:	fa1f f38e 	uxth.w	r3, lr
 800031a:	fbb1 f0f7 	udiv	r0, r1, r7
 800031e:	fb07 1110 	mls	r1, r7, r0, r1
 8000322:	ea43 4301 	orr.w	r3, r3, r1, lsl #16
 8000326:	fb00 f606 	mul.w	r6, r0, r6
 800032a:	429e      	cmp	r6, r3
 800032c:	d90a      	bls.n	8000344 <__udivmoddi4+0x94>
 800032e:	eb1c 0303 	adds.w	r3, ip, r3
 8000332:	f100 31ff 	add.w	r1, r0, #4294967295	@ 0xffffffff
 8000336:	f080 80fc 	bcs.w	8000532 <__udivmoddi4+0x282>
 800033a:	429e      	cmp	r6, r3
 800033c:	f240 80f9 	bls.w	8000532 <__udivmoddi4+0x282>
 8000340:	4463      	add	r3, ip
 8000342:	3802      	subs	r0, #2
 8000344:	1b9b      	subs	r3, r3, r6
 8000346:	ea40 4004 	orr.w	r0, r0, r4, lsl #16
 800034a:	2100      	movs	r1, #0
 800034c:	b11d      	cbz	r5, 8000356 <__udivmoddi4+0xa6>
 800034e:	40d3      	lsrs	r3, r2
 8000350:	2200      	movs	r2, #0
 8000352:	e9c5 3200 	strd	r3, r2, [r5]
 8000356:	e8bd 87f0 	ldmia.w	sp!, {r4, r5, r6, r7, r8, r9, sl, pc}
 800035a:	428b      	cmp	r3, r1
 800035c:	d905      	bls.n	800036a <__udivmoddi4+0xba>
 800035e:	b10d      	cbz	r5, 8000364 <__udivmoddi4+0xb4>
 8000360:	e9c5 0100 	strd	r0, r1, [r5]
 8000364:	2100      	movs	r1, #0
 8000366:	4608      	mov	r0, r1
 8000368:	e7f5      	b.n	8000356 <__udivmoddi4+0xa6>
 800036a:	fab3 f183 	clz	r1, r3
 800036e:	2900      	cmp	r1, #0
 8000370:	d146      	bne.n	8000400 <__udivmoddi4+0x150>
 8000372:	42a3      	cmp	r3, r4
 8000374:	d302      	bcc.n	800037c <__udivmoddi4+0xcc>
 8000376:	4290      	cmp	r0, r2
 8000378:	f0c0 80f0 	bcc.w	800055c <__udivmoddi4+0x2ac>
 800037c:	1a86      	subs	r6, r0, r2
 800037e:	eb64 0303 	sbc.w	r3, r4, r3
 8000382:	2001      	movs	r0, #1
 8000384:	2d00      	cmp	r5, #0
 8000386:	d0e6      	beq.n	8000356 <__udivmoddi4+0xa6>
 8000388:	e9c5 6300 	strd	r6, r3, [r5]
 800038c:	e7e3      	b.n	8000356 <__udivmoddi4+0xa6>
 800038e:	2a00      	cmp	r2, #0
 8000390:	f040 8090 	bne.w	80004b4 <__udivmoddi4+0x204>
 8000394:	eba1 040c 	sub.w	r4, r1, ip
 8000398:	ea4f 481c 	mov.w	r8, ip, lsr #16
 800039c:	fa1f f78c 	uxth.w	r7, ip
 80003a0:	2101      	movs	r1, #1
 80003a2:	fbb4 f6f8 	udiv	r6, r4, r8
 80003a6:	ea4f 431e 	mov.w	r3, lr, lsr #16
 80003aa:	fb08 4416 	mls	r4, r8, r6, r4
 80003ae:	ea43 4304 	orr.w	r3, r3, r4, lsl #16
 80003b2:	fb07 f006 	mul.w	r0, r7, r6
 80003b6:	4298      	cmp	r0, r3
 80003b8:	d908      	bls.n	80003cc <__udivmoddi4+0x11c>
 80003ba:	eb1c 0303 	adds.w	r3, ip, r3
 80003be:	f106 34ff 	add.w	r4, r6, #4294967295	@ 0xffffffff
 80003c2:	d202      	bcs.n	80003ca <__udivmoddi4+0x11a>
 80003c4:	4298      	cmp	r0, r3
 80003c6:	f200 80cd 	bhi.w	8000564 <__udivmoddi4+0x2b4>
 80003ca:	4626      	mov	r6, r4
 80003cc:	1a1c      	subs	r4, r3, r0
 80003ce:	fa1f f38e 	uxth.w	r3, lr
 80003d2:	fbb4 f0f8 	udiv	r0, r4, r8
 80003d6:	fb08 4410 	mls	r4, r8, r0, r4
 80003da:	ea43 4304 	orr.w	r3, r3, r4, lsl #16
 80003de:	fb00 f707 	mul.w	r7, r0, r7
 80003e2:	429f      	cmp	r7, r3
 80003e4:	d908      	bls.n	80003f8 <__udivmoddi4+0x148>
 80003e6:	eb1c 0303 	adds.w	r3, ip, r3
 80003ea:	f100 34ff 	add.w	r4, r0, #4294967295	@ 0xffffffff
 80003ee:	d202      	bcs.n	80003f6 <__udivmoddi4+0x146>
 80003f0:	429f      	cmp	r7, r3
 80003f2:	f200 80b0 	bhi.w	8000556 <__udivmoddi4+0x2a6>
 80003f6:	4620      	mov	r0, r4
 80003f8:	1bdb      	subs	r3, r3, r7
 80003fa:	ea40 4006 	orr.w	r0, r0, r6, lsl #16
 80003fe:	e7a5      	b.n	800034c <__udivmoddi4+0x9c>
 8000400:	f1c1 0620 	rsb	r6, r1, #32
 8000404:	408b      	lsls	r3, r1
 8000406:	fa22 f706 	lsr.w	r7, r2, r6
 800040a:	431f      	orrs	r7, r3
 800040c:	fa20 fc06 	lsr.w	ip, r0, r6
 8000410:	fa04 f301 	lsl.w	r3, r4, r1
 8000414:	ea43 030c 	orr.w	r3, r3, ip
 8000418:	40f4      	lsrs	r4, r6
 800041a:	fa00 f801 	lsl.w	r8, r0, r1
 800041e:	0c38      	lsrs	r0, r7, #16
 8000420:	ea4f 4913 	mov.w	r9, r3, lsr #16
 8000424:	fbb4 fef0 	udiv	lr, r4, r0
 8000428:	fa1f fc87 	uxth.w	ip, r7
 800042c:	fb00 441e 	mls	r4, r0, lr, r4
 8000430:	ea49 4404 	orr.w	r4, r9, r4, lsl #16
 8000434:	fb0e f90c 	mul.w	r9, lr, ip
 8000438:	45a1      	cmp	r9, r4
 800043a:	fa02 f201 	lsl.w	r2, r2, r1
 800043e:	d90a      	bls.n	8000456 <__udivmoddi4+0x1a6>
 8000440:	193c      	adds	r4, r7, r4
 8000442:	f10e 3aff 	add.w	sl, lr, #4294967295	@ 0xffffffff
 8000446:	f080 8084 	bcs.w	8000552 <__udivmoddi4+0x2a2>
 800044a:	45a1      	cmp	r9, r4
 800044c:	f240 8081 	bls.w	8000552 <__udivmoddi4+0x2a2>
 8000450:	f1ae 0e02 	sub.w	lr, lr, #2
 8000454:	443c      	add	r4, r7
 8000456:	eba4 0409 	sub.w	r4, r4, r9
 800045a:	fa1f f983 	uxth.w	r9, r3
 800045e:	fbb4 f3f0 	udiv	r3, r4, r0
 8000462:	fb00 4413 	mls	r4, r0, r3, r4
 8000466:	ea49 4404 	orr.w	r4, r9, r4, lsl #16
 800046a:	fb03 fc0c 	mul.w	ip, r3, ip
 800046e:	45a4      	cmp	ip, r4
 8000470:	d907      	bls.n	8000482 <__udivmoddi4+0x1d2>
 8000472:	193c      	adds	r4, r7, r4
 8000474:	f103 30ff 	add.w	r0, r3, #4294967295	@ 0xffffffff
 8000478:	d267      	bcs.n	800054a <__udivmoddi4+0x29a>
 800047a:	45a4      	cmp	ip, r4
 800047c:	d965      	bls.n	800054a <__udivmoddi4+0x29a>
 800047e:	3b02      	subs	r3, #2
 8000480:	443c      	add	r4, r7
 8000482:	ea43 400e 	orr.w	r0, r3, lr, lsl #16
 8000486:	fba0 9302 	umull	r9, r3, r0, r2
 800048a:	eba4 040c 	sub.w	r4, r4, ip
 800048e:	429c      	cmp	r4, r3
 8000490:	46ce      	mov	lr, r9
 8000492:	469c      	mov	ip, r3
 8000494:	d351      	bcc.n	800053a <__udivmoddi4+0x28a>
 8000496:	d04e      	beq.n	8000536 <__udivmoddi4+0x286>
 8000498:	b155      	cbz	r5, 80004b0 <__udivmoddi4+0x200>
 800049a:	ebb8 030e 	subs.w	r3, r8, lr
 800049e:	eb64 040c 	sbc.w	r4, r4, ip
 80004a2:	fa04 f606 	lsl.w	r6, r4, r6
 80004a6:	40cb      	lsrs	r3, r1
 80004a8:	431e      	orrs	r6, r3
 80004aa:	40cc      	lsrs	r4, r1
 80004ac:	e9c5 6400 	strd	r6, r4, [r5]
 80004b0:	2100      	movs	r1, #0
 80004b2:	e750      	b.n	8000356 <__udivmoddi4+0xa6>
 80004b4:	f1c2 0320 	rsb	r3, r2, #32
 80004b8:	fa20 f103 	lsr.w	r1, r0, r3
 80004bc:	fa0c fc02 	lsl.w	ip, ip, r2
 80004c0:	fa24 f303 	lsr.w	r3, r4, r3
 80004c4:	4094      	lsls	r4, r2
 80004c6:	430c      	orrs	r4, r1
 80004c8:	ea4f 481c 	mov.w	r8, ip, lsr #16
 80004cc:	fa00 fe02 	lsl.w	lr, r0, r2
 80004d0:	fa1f f78c 	uxth.w	r7, ip
 80004d4:	fbb3 f0f8 	udiv	r0, r3, r8
 80004d8:	fb08 3110 	mls	r1, r8, r0, r3
 80004dc:	0c23      	lsrs	r3, r4, #16
 80004de:	ea43 4301 	orr.w	r3, r3, r1, lsl #16
 80004e2:	fb00 f107 	mul.w	r1, r0, r7
 80004e6:	4299      	cmp	r1, r3
 80004e8:	d908      	bls.n	80004fc <__udivmoddi4+0x24c>
 80004ea:	eb1c 0303 	adds.w	r3, ip, r3
 80004ee:	f100 36ff 	add.w	r6, r0, #4294967295	@ 0xffffffff
 80004f2:	d22c      	bcs.n	800054e <__udivmoddi4+0x29e>
 80004f4:	4299      	cmp	r1, r3
 80004f6:	d92a      	bls.n	800054e <__udivmoddi4+0x29e>
 80004f8:	3802      	subs	r0, #2
 80004fa:	4463      	add	r3, ip
 80004fc:	1a5b      	subs	r3, r3, r1
 80004fe:	b2a4      	uxth	r4, r4
 8000500:	fbb3 f1f8 	udiv	r1, r3, r8
 8000504:	fb08 3311 	mls	r3, r8, r1, r3
 8000508:	ea44 4403 	orr.w	r4, r4, r3, lsl #16
 800050c:	fb01 f307 	mul.w	r3, r1, r7
 8000510:	42a3      	cmp	r3, r4
 8000512:	d908      	bls.n	8000526 <__udivmoddi4+0x276>
 8000514:	eb1c 0404 	adds.w	r4, ip, r4
 8000518:	f101 36ff 	add.w	r6, r1, #4294967295	@ 0xffffffff
 800051c:	d213      	bcs.n	8000546 <__udivmoddi4+0x296>
 800051e:	42a3      	cmp	r3, r4
 8000520:	d911      	bls.n	8000546 <__udivmoddi4+0x296>
 8000522:	3902      	subs	r1, #2
 8000524:	4464      	add	r4, ip
 8000526:	1ae4      	subs	r4, r4, r3
 8000528:	ea41 4100 	orr.w	r1, r1, r0, lsl #16
 800052c:	e739      	b.n	80003a2 <__udivmoddi4+0xf2>
 800052e:	4604      	mov	r4, r0
 8000530:	e6f0      	b.n	8000314 <__udivmoddi4+0x64>
 8000532:	4608      	mov	r0, r1
 8000534:	e706      	b.n	8000344 <__udivmoddi4+0x94>
 8000536:	45c8      	cmp	r8, r9
 8000538:	d2ae      	bcs.n	8000498 <__udivmoddi4+0x1e8>
 800053a:	ebb9 0e02 	subs.w	lr, r9, r2
 800053e:	eb63 0c07 	sbc.w	ip, r3, r7
 8000542:	3801      	subs	r0, #1
 8000544:	e7a8      	b.n	8000498 <__udivmoddi4+0x1e8>
 8000546:	4631      	mov	r1, r6
 8000548:	e7ed      	b.n	8000526 <__udivmoddi4+0x276>
 800054a:	4603      	mov	r3, r0
 800054c:	e799      	b.n	8000482 <__udivmoddi4+0x1d2>
 800054e:	4630      	mov	r0, r6
 8000550:	e7d4      	b.n	80004fc <__udivmoddi4+0x24c>
 8000552:	46d6      	mov	lr, sl
 8000554:	e77f      	b.n	8000456 <__udivmoddi4+0x1a6>
 8000556:	4463      	add	r3, ip
 8000558:	3802      	subs	r0, #2
 800055a:	e74d      	b.n	80003f8 <__udivmoddi4+0x148>
 800055c:	4606      	mov	r6, r0
 800055e:	4623      	mov	r3, r4
 8000560:	4608      	mov	r0, r1
 8000562:	e70f      	b.n	8000384 <__udivmoddi4+0xd4>
 8000564:	3e02      	subs	r6, #2
 8000566:	4463      	add	r3, ip
 8000568:	e730      	b.n	80003cc <__udivmoddi4+0x11c>
 800056a:	bf00      	nop

0800056c <__aeabi_idiv0>:
 800056c:	4770      	bx	lr
 800056e:	bf00      	nop

08000570 <KeyGen128>:
void SystemClock_Config(void);
static void MX_GPIO_Init(void);
/* USER CODE BEGIN PFP */

void KeyGen128(u8* MK, u8* RK)
{
 8000570:	b580      	push	{r7, lr}
 8000572:	b084      	sub	sp, #16
 8000574:	af00      	add	r7, sp, #0
 8000576:	6078      	str	r0, [r7, #4]
 8000578:	6039      	str	r1, [r7, #0]
	clearScreen(ALL_LINE);
 800057a:	2000      	movs	r0, #0
 800057c:	f000 fecd 	bl	800131a <clearScreen>
	writeTextLine(LINE_1, "Key Generation");
 8000580:	492a      	ldr	r1, [pc, #168]	@ (800062c <KeyGen128+0xbc>)
 8000582:	2001      	movs	r0, #1
 8000584:	f000 ff36 	bl	80013f4 <writeTextLine>
	u32 i;

	RK[0] = MK[0]; RK[1] = MK[1]; RK[2] = MK[2]; RK[3] = MK[3];
 8000588:	687b      	ldr	r3, [r7, #4]
 800058a:	781a      	ldrb	r2, [r3, #0]
 800058c:	683b      	ldr	r3, [r7, #0]
 800058e:	701a      	strb	r2, [r3, #0]
 8000590:	683b      	ldr	r3, [r7, #0]
 8000592:	3301      	adds	r3, #1
 8000594:	687a      	ldr	r2, [r7, #4]
 8000596:	7852      	ldrb	r2, [r2, #1]
 8000598:	701a      	strb	r2, [r3, #0]
 800059a:	683b      	ldr	r3, [r7, #0]
 800059c:	3302      	adds	r3, #2
 800059e:	687a      	ldr	r2, [r7, #4]
 80005a0:	7892      	ldrb	r2, [r2, #2]
 80005a2:	701a      	strb	r2, [r3, #0]
 80005a4:	683b      	ldr	r3, [r7, #0]
 80005a6:	3303      	adds	r3, #3
 80005a8:	687a      	ldr	r2, [r7, #4]
 80005aa:	78d2      	ldrb	r2, [r2, #3]
 80005ac:	701a      	strb	r2, [r3, #0]
	RK[4] = MK[4]; RK[5] = MK[5]; RK[6] = MK[6]; RK[7] = MK[7];
 80005ae:	683b      	ldr	r3, [r7, #0]
 80005b0:	3304      	adds	r3, #4
 80005b2:	687a      	ldr	r2, [r7, #4]
 80005b4:	7912      	ldrb	r2, [r2, #4]
 80005b6:	701a      	strb	r2, [r3, #0]
 80005b8:	683b      	ldr	r3, [r7, #0]
 80005ba:	3305      	adds	r3, #5
 80005bc:	687a      	ldr	r2, [r7, #4]
 80005be:	7952      	ldrb	r2, [r2, #5]
 80005c0:	701a      	strb	r2, [r3, #0]
 80005c2:	683b      	ldr	r3, [r7, #0]
 80005c4:	3306      	adds	r3, #6
 80005c6:	687a      	ldr	r2, [r7, #4]
 80005c8:	7992      	ldrb	r2, [r2, #6]
 80005ca:	701a      	strb	r2, [r3, #0]
 80005cc:	683b      	ldr	r3, [r7, #0]
 80005ce:	3307      	adds	r3, #7
 80005d0:	687a      	ldr	r2, [r7, #4]
 80005d2:	79d2      	ldrb	r2, [r2, #7]
 80005d4:	701a      	strb	r2, [r3, #0]
	RK[8] = MK[8]; RK[9] = MK[9]; RK[10] = MK[10]; RK[11] = MK[11];
 80005d6:	683b      	ldr	r3, [r7, #0]
 80005d8:	3308      	adds	r3, #8
 80005da:	687a      	ldr	r2, [r7, #4]
 80005dc:	7a12      	ldrb	r2, [r2, #8]
 80005de:	701a      	strb	r2, [r3, #0]
 80005e0:	683b      	ldr	r3, [r7, #0]
 80005e2:	3309      	adds	r3, #9
 80005e4:	687a      	ldr	r2, [r7, #4]
 80005e6:	7a52      	ldrb	r2, [r2, #9]
 80005e8:	701a      	strb	r2, [r3, #0]
 80005ea:	683b      	ldr	r3, [r7, #0]
 80005ec:	330a      	adds	r3, #10
 80005ee:	687a      	ldr	r2, [r7, #4]
 80005f0:	7a92      	ldrb	r2, [r2, #10]
 80005f2:	701a      	strb	r2, [r3, #0]
 80005f4:	683b      	ldr	r3, [r7, #0]
 80005f6:	330b      	adds	r3, #11
 80005f8:	687a      	ldr	r2, [r7, #4]
 80005fa:	7ad2      	ldrb	r2, [r2, #11]
 80005fc:	701a      	strb	r2, [r3, #0]
	RK[12] = MK[12]; RK[13] = MK[13]; RK[14] = MK[14]; RK[15] = MK[15];
 80005fe:	683b      	ldr	r3, [r7, #0]
 8000600:	330c      	adds	r3, #12
 8000602:	687a      	ldr	r2, [r7, #4]
 8000604:	7b12      	ldrb	r2, [r2, #12]
 8000606:	701a      	strb	r2, [r3, #0]
 8000608:	683b      	ldr	r3, [r7, #0]
 800060a:	330d      	adds	r3, #13
 800060c:	687a      	ldr	r2, [r7, #4]
 800060e:	7b52      	ldrb	r2, [r2, #13]
 8000610:	701a      	strb	r2, [r3, #0]
 8000612:	683b      	ldr	r3, [r7, #0]
 8000614:	330e      	adds	r3, #14
 8000616:	687a      	ldr	r2, [r7, #4]
 8000618:	7b92      	ldrb	r2, [r2, #14]
 800061a:	701a      	strb	r2, [r3, #0]
 800061c:	683b      	ldr	r3, [r7, #0]
 800061e:	330f      	adds	r3, #15
 8000620:	687a      	ldr	r2, [r7, #4]
 8000622:	7bd2      	ldrb	r2, [r2, #15]
 8000624:	701a      	strb	r2, [r3, #0]

	for (i = 0; i < 10; i++)
 8000626:	2300      	movs	r3, #0
 8000628:	60fb      	str	r3, [r7, #12]
 800062a:	e175      	b.n	8000918 <KeyGen128+0x3a8>
 800062c:	08002d94 	.word	0x08002d94
	{
		RK[16 * (i + 1)] = RK[16 * i] ^ Sbox[RK[16 * i + 13]] ^ Rcons[i];
 8000630:	68fb      	ldr	r3, [r7, #12]
 8000632:	011b      	lsls	r3, r3, #4
 8000634:	683a      	ldr	r2, [r7, #0]
 8000636:	4413      	add	r3, r2
 8000638:	781a      	ldrb	r2, [r3, #0]
 800063a:	68fb      	ldr	r3, [r7, #12]
 800063c:	011b      	lsls	r3, r3, #4
 800063e:	330d      	adds	r3, #13
 8000640:	6839      	ldr	r1, [r7, #0]
 8000642:	440b      	add	r3, r1
 8000644:	781b      	ldrb	r3, [r3, #0]
 8000646:	4619      	mov	r1, r3
 8000648:	4bb1      	ldr	r3, [pc, #708]	@ (8000910 <KeyGen128+0x3a0>)
 800064a:	5c5b      	ldrb	r3, [r3, r1]
 800064c:	4053      	eors	r3, r2
 800064e:	b2d9      	uxtb	r1, r3
 8000650:	4ab0      	ldr	r2, [pc, #704]	@ (8000914 <KeyGen128+0x3a4>)
 8000652:	68fb      	ldr	r3, [r7, #12]
 8000654:	4413      	add	r3, r2
 8000656:	781a      	ldrb	r2, [r3, #0]
 8000658:	68fb      	ldr	r3, [r7, #12]
 800065a:	3301      	adds	r3, #1
 800065c:	011b      	lsls	r3, r3, #4
 800065e:	6838      	ldr	r0, [r7, #0]
 8000660:	4403      	add	r3, r0
 8000662:	404a      	eors	r2, r1
 8000664:	b2d2      	uxtb	r2, r2
 8000666:	701a      	strb	r2, [r3, #0]
		RK[16 * (i + 1) + 1] = RK[16 * i + 1] ^ Sbox[RK[16 * i + 14]];
 8000668:	68fb      	ldr	r3, [r7, #12]
 800066a:	011b      	lsls	r3, r3, #4
 800066c:	3301      	adds	r3, #1
 800066e:	683a      	ldr	r2, [r7, #0]
 8000670:	4413      	add	r3, r2
 8000672:	7819      	ldrb	r1, [r3, #0]
 8000674:	68fb      	ldr	r3, [r7, #12]
 8000676:	011b      	lsls	r3, r3, #4
 8000678:	330e      	adds	r3, #14
 800067a:	683a      	ldr	r2, [r7, #0]
 800067c:	4413      	add	r3, r2
 800067e:	781b      	ldrb	r3, [r3, #0]
 8000680:	461a      	mov	r2, r3
 8000682:	4ba3      	ldr	r3, [pc, #652]	@ (8000910 <KeyGen128+0x3a0>)
 8000684:	5c9a      	ldrb	r2, [r3, r2]
 8000686:	68fb      	ldr	r3, [r7, #12]
 8000688:	3301      	adds	r3, #1
 800068a:	011b      	lsls	r3, r3, #4
 800068c:	3301      	adds	r3, #1
 800068e:	6838      	ldr	r0, [r7, #0]
 8000690:	4403      	add	r3, r0
 8000692:	404a      	eors	r2, r1
 8000694:	b2d2      	uxtb	r2, r2
 8000696:	701a      	strb	r2, [r3, #0]
		RK[16 * (i + 1) + 2] = RK[16 * i + 2] ^ Sbox[RK[16 * i + 15]];
 8000698:	68fb      	ldr	r3, [r7, #12]
 800069a:	011b      	lsls	r3, r3, #4
 800069c:	3302      	adds	r3, #2
 800069e:	683a      	ldr	r2, [r7, #0]
 80006a0:	4413      	add	r3, r2
 80006a2:	7819      	ldrb	r1, [r3, #0]
 80006a4:	68fb      	ldr	r3, [r7, #12]
 80006a6:	011b      	lsls	r3, r3, #4
 80006a8:	330f      	adds	r3, #15
 80006aa:	683a      	ldr	r2, [r7, #0]
 80006ac:	4413      	add	r3, r2
 80006ae:	781b      	ldrb	r3, [r3, #0]
 80006b0:	461a      	mov	r2, r3
 80006b2:	4b97      	ldr	r3, [pc, #604]	@ (8000910 <KeyGen128+0x3a0>)
 80006b4:	5c9a      	ldrb	r2, [r3, r2]
 80006b6:	68fb      	ldr	r3, [r7, #12]
 80006b8:	3301      	adds	r3, #1
 80006ba:	011b      	lsls	r3, r3, #4
 80006bc:	3302      	adds	r3, #2
 80006be:	6838      	ldr	r0, [r7, #0]
 80006c0:	4403      	add	r3, r0
 80006c2:	404a      	eors	r2, r1
 80006c4:	b2d2      	uxtb	r2, r2
 80006c6:	701a      	strb	r2, [r3, #0]
		RK[16 * (i + 1) + 3] = RK[16 * i + 3] ^ Sbox[RK[16 * i + 12]];
 80006c8:	68fb      	ldr	r3, [r7, #12]
 80006ca:	011b      	lsls	r3, r3, #4
 80006cc:	3303      	adds	r3, #3
 80006ce:	683a      	ldr	r2, [r7, #0]
 80006d0:	4413      	add	r3, r2
 80006d2:	7819      	ldrb	r1, [r3, #0]
 80006d4:	68fb      	ldr	r3, [r7, #12]
 80006d6:	011b      	lsls	r3, r3, #4
 80006d8:	330c      	adds	r3, #12
 80006da:	683a      	ldr	r2, [r7, #0]
 80006dc:	4413      	add	r3, r2
 80006de:	781b      	ldrb	r3, [r3, #0]
 80006e0:	461a      	mov	r2, r3
 80006e2:	4b8b      	ldr	r3, [pc, #556]	@ (8000910 <KeyGen128+0x3a0>)
 80006e4:	5c9a      	ldrb	r2, [r3, r2]
 80006e6:	68fb      	ldr	r3, [r7, #12]
 80006e8:	3301      	adds	r3, #1
 80006ea:	011b      	lsls	r3, r3, #4
 80006ec:	3303      	adds	r3, #3
 80006ee:	6838      	ldr	r0, [r7, #0]
 80006f0:	4403      	add	r3, r0
 80006f2:	404a      	eors	r2, r1
 80006f4:	b2d2      	uxtb	r2, r2
 80006f6:	701a      	strb	r2, [r3, #0]

		RK[16 * (i + 1) + 4] = RK[16 * (i + 1)] ^ RK[16 * i + 4];
 80006f8:	68fb      	ldr	r3, [r7, #12]
 80006fa:	3301      	adds	r3, #1
 80006fc:	011b      	lsls	r3, r3, #4
 80006fe:	683a      	ldr	r2, [r7, #0]
 8000700:	4413      	add	r3, r2
 8000702:	7819      	ldrb	r1, [r3, #0]
 8000704:	68fb      	ldr	r3, [r7, #12]
 8000706:	011b      	lsls	r3, r3, #4
 8000708:	3304      	adds	r3, #4
 800070a:	683a      	ldr	r2, [r7, #0]
 800070c:	4413      	add	r3, r2
 800070e:	781a      	ldrb	r2, [r3, #0]
 8000710:	68fb      	ldr	r3, [r7, #12]
 8000712:	3301      	adds	r3, #1
 8000714:	011b      	lsls	r3, r3, #4
 8000716:	3304      	adds	r3, #4
 8000718:	6838      	ldr	r0, [r7, #0]
 800071a:	4403      	add	r3, r0
 800071c:	404a      	eors	r2, r1
 800071e:	b2d2      	uxtb	r2, r2
 8000720:	701a      	strb	r2, [r3, #0]
		RK[16 * (i + 1) + 5] = RK[16 * (i + 1) + 1] ^ RK[16 * i + 5];
 8000722:	68fb      	ldr	r3, [r7, #12]
 8000724:	3301      	adds	r3, #1
 8000726:	011b      	lsls	r3, r3, #4
 8000728:	3301      	adds	r3, #1
 800072a:	683a      	ldr	r2, [r7, #0]
 800072c:	4413      	add	r3, r2
 800072e:	7819      	ldrb	r1, [r3, #0]
 8000730:	68fb      	ldr	r3, [r7, #12]
 8000732:	011b      	lsls	r3, r3, #4
 8000734:	3305      	adds	r3, #5
 8000736:	683a      	ldr	r2, [r7, #0]
 8000738:	4413      	add	r3, r2
 800073a:	781a      	ldrb	r2, [r3, #0]
 800073c:	68fb      	ldr	r3, [r7, #12]
 800073e:	3301      	adds	r3, #1
 8000740:	011b      	lsls	r3, r3, #4
 8000742:	3305      	adds	r3, #5
 8000744:	6838      	ldr	r0, [r7, #0]
 8000746:	4403      	add	r3, r0
 8000748:	404a      	eors	r2, r1
 800074a:	b2d2      	uxtb	r2, r2
 800074c:	701a      	strb	r2, [r3, #0]
		RK[16 * (i + 1) + 6] = RK[16 * (i + 1) + 2] ^ RK[16 * i + 6];
 800074e:	68fb      	ldr	r3, [r7, #12]
 8000750:	3301      	adds	r3, #1
 8000752:	011b      	lsls	r3, r3, #4
 8000754:	3302      	adds	r3, #2
 8000756:	683a      	ldr	r2, [r7, #0]
 8000758:	4413      	add	r3, r2
 800075a:	7819      	ldrb	r1, [r3, #0]
 800075c:	68fb      	ldr	r3, [r7, #12]
 800075e:	011b      	lsls	r3, r3, #4
 8000760:	3306      	adds	r3, #6
 8000762:	683a      	ldr	r2, [r7, #0]
 8000764:	4413      	add	r3, r2
 8000766:	781a      	ldrb	r2, [r3, #0]
 8000768:	68fb      	ldr	r3, [r7, #12]
 800076a:	3301      	adds	r3, #1
 800076c:	011b      	lsls	r3, r3, #4
 800076e:	3306      	adds	r3, #6
 8000770:	6838      	ldr	r0, [r7, #0]
 8000772:	4403      	add	r3, r0
 8000774:	404a      	eors	r2, r1
 8000776:	b2d2      	uxtb	r2, r2
 8000778:	701a      	strb	r2, [r3, #0]
		RK[16 * (i + 1) + 7] = RK[16 * (i + 1) + 3] ^ RK[16 * i + 7];
 800077a:	68fb      	ldr	r3, [r7, #12]
 800077c:	3301      	adds	r3, #1
 800077e:	011b      	lsls	r3, r3, #4
 8000780:	3303      	adds	r3, #3
 8000782:	683a      	ldr	r2, [r7, #0]
 8000784:	4413      	add	r3, r2
 8000786:	7819      	ldrb	r1, [r3, #0]
 8000788:	68fb      	ldr	r3, [r7, #12]
 800078a:	011b      	lsls	r3, r3, #4
 800078c:	3307      	adds	r3, #7
 800078e:	683a      	ldr	r2, [r7, #0]
 8000790:	4413      	add	r3, r2
 8000792:	781a      	ldrb	r2, [r3, #0]
 8000794:	68fb      	ldr	r3, [r7, #12]
 8000796:	3301      	adds	r3, #1
 8000798:	011b      	lsls	r3, r3, #4
 800079a:	3307      	adds	r3, #7
 800079c:	6838      	ldr	r0, [r7, #0]
 800079e:	4403      	add	r3, r0
 80007a0:	404a      	eors	r2, r1
 80007a2:	b2d2      	uxtb	r2, r2
 80007a4:	701a      	strb	r2, [r3, #0]

		RK[16 * (i + 1) + 8] = RK[16 * (i + 1) + 4] ^ RK[16 * i + 8];
 80007a6:	68fb      	ldr	r3, [r7, #12]
 80007a8:	3301      	adds	r3, #1
 80007aa:	011b      	lsls	r3, r3, #4
 80007ac:	3304      	adds	r3, #4
 80007ae:	683a      	ldr	r2, [r7, #0]
 80007b0:	4413      	add	r3, r2
 80007b2:	7819      	ldrb	r1, [r3, #0]
 80007b4:	68fb      	ldr	r3, [r7, #12]
 80007b6:	011b      	lsls	r3, r3, #4
 80007b8:	3308      	adds	r3, #8
 80007ba:	683a      	ldr	r2, [r7, #0]
 80007bc:	4413      	add	r3, r2
 80007be:	781a      	ldrb	r2, [r3, #0]
 80007c0:	68fb      	ldr	r3, [r7, #12]
 80007c2:	3301      	adds	r3, #1
 80007c4:	011b      	lsls	r3, r3, #4
 80007c6:	3308      	adds	r3, #8
 80007c8:	6838      	ldr	r0, [r7, #0]
 80007ca:	4403      	add	r3, r0
 80007cc:	404a      	eors	r2, r1
 80007ce:	b2d2      	uxtb	r2, r2
 80007d0:	701a      	strb	r2, [r3, #0]
		RK[16 * (i + 1) + 9] = RK[16 * (i + 1) + 5] ^ RK[16 * i + 9];
 80007d2:	68fb      	ldr	r3, [r7, #12]
 80007d4:	3301      	adds	r3, #1
 80007d6:	011b      	lsls	r3, r3, #4
 80007d8:	3305      	adds	r3, #5
 80007da:	683a      	ldr	r2, [r7, #0]
 80007dc:	4413      	add	r3, r2
 80007de:	7819      	ldrb	r1, [r3, #0]
 80007e0:	68fb      	ldr	r3, [r7, #12]
 80007e2:	011b      	lsls	r3, r3, #4
 80007e4:	3309      	adds	r3, #9
 80007e6:	683a      	ldr	r2, [r7, #0]
 80007e8:	4413      	add	r3, r2
 80007ea:	781a      	ldrb	r2, [r3, #0]
 80007ec:	68fb      	ldr	r3, [r7, #12]
 80007ee:	3301      	adds	r3, #1
 80007f0:	011b      	lsls	r3, r3, #4
 80007f2:	3309      	adds	r3, #9
 80007f4:	6838      	ldr	r0, [r7, #0]
 80007f6:	4403      	add	r3, r0
 80007f8:	404a      	eors	r2, r1
 80007fa:	b2d2      	uxtb	r2, r2
 80007fc:	701a      	strb	r2, [r3, #0]
		RK[16 * (i + 1) + 10] = RK[16 * (i + 1) + 6] ^ RK[16 * i + 10];
 80007fe:	68fb      	ldr	r3, [r7, #12]
 8000800:	3301      	adds	r3, #1
 8000802:	011b      	lsls	r3, r3, #4
 8000804:	3306      	adds	r3, #6
 8000806:	683a      	ldr	r2, [r7, #0]
 8000808:	4413      	add	r3, r2
 800080a:	7819      	ldrb	r1, [r3, #0]
 800080c:	68fb      	ldr	r3, [r7, #12]
 800080e:	011b      	lsls	r3, r3, #4
 8000810:	330a      	adds	r3, #10
 8000812:	683a      	ldr	r2, [r7, #0]
 8000814:	4413      	add	r3, r2
 8000816:	781a      	ldrb	r2, [r3, #0]
 8000818:	68fb      	ldr	r3, [r7, #12]
 800081a:	3301      	adds	r3, #1
 800081c:	011b      	lsls	r3, r3, #4
 800081e:	330a      	adds	r3, #10
 8000820:	6838      	ldr	r0, [r7, #0]
 8000822:	4403      	add	r3, r0
 8000824:	404a      	eors	r2, r1
 8000826:	b2d2      	uxtb	r2, r2
 8000828:	701a      	strb	r2, [r3, #0]
		RK[16 * (i + 1) + 11] = RK[16 * (i + 1) + 7] ^ RK[16 * i + 11];
 800082a:	68fb      	ldr	r3, [r7, #12]
 800082c:	3301      	adds	r3, #1
 800082e:	011b      	lsls	r3, r3, #4
 8000830:	3307      	adds	r3, #7
 8000832:	683a      	ldr	r2, [r7, #0]
 8000834:	4413      	add	r3, r2
 8000836:	7819      	ldrb	r1, [r3, #0]
 8000838:	68fb      	ldr	r3, [r7, #12]
 800083a:	011b      	lsls	r3, r3, #4
 800083c:	330b      	adds	r3, #11
 800083e:	683a      	ldr	r2, [r7, #0]
 8000840:	4413      	add	r3, r2
 8000842:	781a      	ldrb	r2, [r3, #0]
 8000844:	68fb      	ldr	r3, [r7, #12]
 8000846:	3301      	adds	r3, #1
 8000848:	011b      	lsls	r3, r3, #4
 800084a:	330b      	adds	r3, #11
 800084c:	6838      	ldr	r0, [r7, #0]
 800084e:	4403      	add	r3, r0
 8000850:	404a      	eors	r2, r1
 8000852:	b2d2      	uxtb	r2, r2
 8000854:	701a      	strb	r2, [r3, #0]

		RK[16 * (i + 1) + 12] = RK[16 * (i + 1) + 8] ^ RK[16 * i + 12];
 8000856:	68fb      	ldr	r3, [r7, #12]
 8000858:	3301      	adds	r3, #1
 800085a:	011b      	lsls	r3, r3, #4
 800085c:	3308      	adds	r3, #8
 800085e:	683a      	ldr	r2, [r7, #0]
 8000860:	4413      	add	r3, r2
 8000862:	7819      	ldrb	r1, [r3, #0]
 8000864:	68fb      	ldr	r3, [r7, #12]
 8000866:	011b      	lsls	r3, r3, #4
 8000868:	330c      	adds	r3, #12
 800086a:	683a      	ldr	r2, [r7, #0]
 800086c:	4413      	add	r3, r2
 800086e:	781a      	ldrb	r2, [r3, #0]
 8000870:	68fb      	ldr	r3, [r7, #12]
 8000872:	3301      	adds	r3, #1
 8000874:	011b      	lsls	r3, r3, #4
 8000876:	330c      	adds	r3, #12
 8000878:	6838      	ldr	r0, [r7, #0]
 800087a:	4403      	add	r3, r0
 800087c:	404a      	eors	r2, r1
 800087e:	b2d2      	uxtb	r2, r2
 8000880:	701a      	strb	r2, [r3, #0]
		RK[16 * (i + 1) + 13] = RK[16 * (i + 1) + 9] ^ RK[16 * i + 13];
 8000882:	68fb      	ldr	r3, [r7, #12]
 8000884:	3301      	adds	r3, #1
 8000886:	011b      	lsls	r3, r3, #4
 8000888:	3309      	adds	r3, #9
 800088a:	683a      	ldr	r2, [r7, #0]
 800088c:	4413      	add	r3, r2
 800088e:	7819      	ldrb	r1, [r3, #0]
 8000890:	68fb      	ldr	r3, [r7, #12]
 8000892:	011b      	lsls	r3, r3, #4
 8000894:	330d      	adds	r3, #13
 8000896:	683a      	ldr	r2, [r7, #0]
 8000898:	4413      	add	r3, r2
 800089a:	781a      	ldrb	r2, [r3, #0]
 800089c:	68fb      	ldr	r3, [r7, #12]
 800089e:	3301      	adds	r3, #1
 80008a0:	011b      	lsls	r3, r3, #4
 80008a2:	330d      	adds	r3, #13
 80008a4:	6838      	ldr	r0, [r7, #0]
 80008a6:	4403      	add	r3, r0
 80008a8:	404a      	eors	r2, r1
 80008aa:	b2d2      	uxtb	r2, r2
 80008ac:	701a      	strb	r2, [r3, #0]
		RK[16 * (i + 1) + 14] = RK[16 * (i + 1) + 10] ^ RK[16 * i + 14];
 80008ae:	68fb      	ldr	r3, [r7, #12]
 80008b0:	3301      	adds	r3, #1
 80008b2:	011b      	lsls	r3, r3, #4
 80008b4:	330a      	adds	r3, #10
 80008b6:	683a      	ldr	r2, [r7, #0]
 80008b8:	4413      	add	r3, r2
 80008ba:	7819      	ldrb	r1, [r3, #0]
 80008bc:	68fb      	ldr	r3, [r7, #12]
 80008be:	011b      	lsls	r3, r3, #4
 80008c0:	330e      	adds	r3, #14
 80008c2:	683a      	ldr	r2, [r7, #0]
 80008c4:	4413      	add	r3, r2
 80008c6:	781a      	ldrb	r2, [r3, #0]
 80008c8:	68fb      	ldr	r3, [r7, #12]
 80008ca:	3301      	adds	r3, #1
 80008cc:	011b      	lsls	r3, r3, #4
 80008ce:	330e      	adds	r3, #14
 80008d0:	6838      	ldr	r0, [r7, #0]
 80008d2:	4403      	add	r3, r0
 80008d4:	404a      	eors	r2, r1
 80008d6:	b2d2      	uxtb	r2, r2
 80008d8:	701a      	strb	r2, [r3, #0]
		RK[16 * (i + 1) + 15] = RK[16 * (i + 1) + 11] ^ RK[16 * i + 15];
 80008da:	68fb      	ldr	r3, [r7, #12]
 80008dc:	3301      	adds	r3, #1
 80008de:	011b      	lsls	r3, r3, #4
 80008e0:	330b      	adds	r3, #11
 80008e2:	683a      	ldr	r2, [r7, #0]
 80008e4:	4413      	add	r3, r2
 80008e6:	7819      	ldrb	r1, [r3, #0]
 80008e8:	68fb      	ldr	r3, [r7, #12]
 80008ea:	011b      	lsls	r3, r3, #4
 80008ec:	330f      	adds	r3, #15
 80008ee:	683a      	ldr	r2, [r7, #0]
 80008f0:	4413      	add	r3, r2
 80008f2:	781a      	ldrb	r2, [r3, #0]
 80008f4:	68fb      	ldr	r3, [r7, #12]
 80008f6:	3301      	adds	r3, #1
 80008f8:	011b      	lsls	r3, r3, #4
 80008fa:	330f      	adds	r3, #15
 80008fc:	6838      	ldr	r0, [r7, #0]
 80008fe:	4403      	add	r3, r0
 8000900:	404a      	eors	r2, r1
 8000902:	b2d2      	uxtb	r2, r2
 8000904:	701a      	strb	r2, [r3, #0]
	for (i = 0; i < 10; i++)
 8000906:	68fb      	ldr	r3, [r7, #12]
 8000908:	3301      	adds	r3, #1
 800090a:	60fb      	str	r3, [r7, #12]
 800090c:	e004      	b.n	8000918 <KeyGen128+0x3a8>
 800090e:	bf00      	nop
 8000910:	20000010 	.word	0x20000010
 8000914:	20000000 	.word	0x20000000
 8000918:	68fb      	ldr	r3, [r7, #12]
 800091a:	2b09      	cmp	r3, #9
 800091c:	f67f ae88 	bls.w	8000630 <KeyGen128+0xc0>
	}
}
 8000920:	bf00      	nop
 8000922:	bf00      	nop
 8000924:	3710      	adds	r7, #16
 8000926:	46bd      	mov	sp, r7
 8000928:	bd80      	pop	{r7, pc}
 800092a:	bf00      	nop

0800092c <main>:
/**
  * @brief  The application entry point.
  * @retval int
  */
int main(void)
{
 800092c:	b590      	push	{r4, r7, lr}
 800092e:	b0dd      	sub	sp, #372	@ 0x174
 8000930:	af02      	add	r7, sp, #8

  /* USER CODE BEGIN 1 */
	u8 buf[4][16] = {0, };
 8000932:	f507 738c 	add.w	r3, r7, #280	@ 0x118
 8000936:	2240      	movs	r2, #64	@ 0x40
 8000938:	2100      	movs	r1, #0
 800093a:	4618      	mov	r0, r3
 800093c:	f001 fd95 	bl	800246a <memset>
	//u8 MK[16] = {0, };
	u8 MK[16] = { 0x00, 0x01, 0x02, 0x03, 0x04, 0x05, 0x06, 0x07, 0x08, 0x09, 0x0a, 0x0b, 0x0c, 0x0d, 0x0e, 0x0f };
 8000940:	4b7c      	ldr	r3, [pc, #496]	@ (8000b34 <main+0x208>)
 8000942:	f507 7484 	add.w	r4, r7, #264	@ 0x108
 8000946:	cb0f      	ldmia	r3, {r0, r1, r2, r3}
 8000948:	e884 000f 	stmia.w	r4, {r0, r1, r2, r3}
	u8 RK[240] = {0, };
 800094c:	f507 73b4 	add.w	r3, r7, #360	@ 0x168
 8000950:	f5a3 73a8 	sub.w	r3, r3, #336	@ 0x150
 8000954:	2200      	movs	r2, #0
 8000956:	601a      	str	r2, [r3, #0]
 8000958:	3304      	adds	r3, #4
 800095a:	22ec      	movs	r2, #236	@ 0xec
 800095c:	2100      	movs	r1, #0
 800095e:	4618      	mov	r0, r3
 8000960:	f001 fd83 	bl	800246a <memset>
	u8 out[16] = {0, };
 8000964:	f507 73b4 	add.w	r3, r7, #360	@ 0x168
 8000968:	f5a3 73b0 	sub.w	r3, r3, #352	@ 0x160
 800096c:	2200      	movs	r2, #0
 800096e:	601a      	str	r2, [r3, #0]
 8000970:	3304      	adds	r3, #4
 8000972:	2200      	movs	r2, #0
 8000974:	601a      	str	r2, [r3, #0]
 8000976:	605a      	str	r2, [r3, #4]
 8000978:	609a      	str	r2, [r3, #8]
	int num_input = 0;
 800097a:	2300      	movs	r3, #0
 800097c:	f8c7 3164 	str.w	r3, [r7, #356]	@ 0x164

	bool START_FLAG = True;
 8000980:	2301      	movs	r3, #1
 8000982:	f887 3163 	strb.w	r3, [r7, #355]	@ 0x163
  /* USER CODE END 1 */

  /* MCU Configuration--------------------------------------------------------*/

  /* Reset of all peripherals, Initializes the Flash interface and the Systick. */
  HAL_Init();
 8000986:	f000 fd8b 	bl	80014a0 <HAL_Init>
  /* USER CODE BEGIN Init */

  /* USER CODE END Init */

  /* Configure the system clock */
  SystemClock_Config();
 800098a:	f000 f8df 	bl	8000b4c <SystemClock_Config>
  /* USER CODE BEGIN SysInit */

  /* USER CODE END SysInit */

  /* Initialize all configured peripherals */
  MX_GPIO_Init();
 800098e:	f000 f93b 	bl	8000c08 <MX_GPIO_Init>
  /* USER CODE BEGIN 2 */
  TextlcdInit();
 8000992:	f000 fd29 	bl	80013e8 <TextlcdInit>
  clearScreen(ALL_LINE);
 8000996:	2000      	movs	r0, #0
 8000998:	f000 fcbf 	bl	800131a <clearScreen>

  /* Infinite loop */
  /* USER CODE BEGIN WHILE */
  while (1)
  {
	  int i = 0, index = 0;
 800099c:	2300      	movs	r3, #0
 800099e:	f8c7 315c 	str.w	r3, [r7, #348]	@ 0x15c
 80009a2:	2300      	movs	r3, #0
 80009a4:	f8c7 3158 	str.w	r3, [r7, #344]	@ 0x158

	  while (num_input < 32)
 80009a8:	e0b2      	b.n	8000b10 <main+0x1e4>
	  {
		  if (START_FLAG == True)
 80009aa:	f897 3163 	ldrb.w	r3, [r7, #355]	@ 0x163
 80009ae:	2b01      	cmp	r3, #1
 80009b0:	d109      	bne.n	80009c6 <main+0x9a>
		  {
			  clearScreen(0);
 80009b2:	2000      	movs	r0, #0
 80009b4:	f000 fcb1 	bl	800131a <clearScreen>
			  writeTextLine(LINE_1, "Master Key:");
 80009b8:	495f      	ldr	r1, [pc, #380]	@ (8000b38 <main+0x20c>)
 80009ba:	2001      	movs	r0, #1
 80009bc:	f000 fd1a 	bl	80013f4 <writeTextLine>
			  START_FLAG = False;
 80009c0:	2300      	movs	r3, #0
 80009c2:	f887 3163 	strb.w	r3, [r7, #355]	@ 0x163
		  }

		  if (INPUT_FLAG == True)
 80009c6:	4b5d      	ldr	r3, [pc, #372]	@ (8000b3c <main+0x210>)
 80009c8:	781b      	ldrb	r3, [r3, #0]
 80009ca:	2b01      	cmp	r3, #1
 80009cc:	f040 80a0 	bne.w	8000b10 <main+0x1e4>
		  {
			  INPUT_FLAG = False;
 80009d0:	4b5a      	ldr	r3, [pc, #360]	@ (8000b3c <main+0x210>)
 80009d2:	2200      	movs	r2, #0
 80009d4:	701a      	strb	r2, [r3, #0]
			  num_input++;
 80009d6:	f8d7 3164 	ldr.w	r3, [r7, #356]	@ 0x164
 80009da:	3301      	adds	r3, #1
 80009dc:	f8c7 3164 	str.w	r3, [r7, #356]	@ 0x164
			  MK[index] ^= (num_input % 2 == 1) ? (input << 4) : input;
 80009e0:	f507 7284 	add.w	r2, r7, #264	@ 0x108
 80009e4:	f8d7 3158 	ldr.w	r3, [r7, #344]	@ 0x158
 80009e8:	4413      	add	r3, r2
 80009ea:	781b      	ldrb	r3, [r3, #0]
 80009ec:	b25a      	sxtb	r2, r3
 80009ee:	f8d7 3164 	ldr.w	r3, [r7, #356]	@ 0x164
 80009f2:	2b00      	cmp	r3, #0
 80009f4:	f003 0301 	and.w	r3, r3, #1
 80009f8:	bfb8      	it	lt
 80009fa:	425b      	neglt	r3, r3
 80009fc:	2b01      	cmp	r3, #1
 80009fe:	d104      	bne.n	8000a0a <main+0xde>
 8000a00:	4b4f      	ldr	r3, [pc, #316]	@ (8000b40 <main+0x214>)
 8000a02:	781b      	ldrb	r3, [r3, #0]
 8000a04:	011b      	lsls	r3, r3, #4
 8000a06:	b25b      	sxtb	r3, r3
 8000a08:	e002      	b.n	8000a10 <main+0xe4>
 8000a0a:	4b4d      	ldr	r3, [pc, #308]	@ (8000b40 <main+0x214>)
 8000a0c:	781b      	ldrb	r3, [r3, #0]
 8000a0e:	b25b      	sxtb	r3, r3
 8000a10:	4053      	eors	r3, r2
 8000a12:	b25b      	sxtb	r3, r3
 8000a14:	b2d9      	uxtb	r1, r3
 8000a16:	f507 7284 	add.w	r2, r7, #264	@ 0x108
 8000a1a:	f8d7 3158 	ldr.w	r3, [r7, #344]	@ 0x158
 8000a1e:	4413      	add	r3, r2
 8000a20:	460a      	mov	r2, r1
 8000a22:	701a      	strb	r2, [r3, #0]
			  u8 tmp[4] = {0, };
 8000a24:	f507 73b4 	add.w	r3, r7, #360	@ 0x168
 8000a28:	f5a3 73b2 	sub.w	r3, r3, #356	@ 0x164
 8000a2c:	2200      	movs	r2, #0
 8000a2e:	601a      	str	r2, [r3, #0]
			  sprintf(tmp, "0x%02x", MK[index]);
 8000a30:	f507 7284 	add.w	r2, r7, #264	@ 0x108
 8000a34:	f8d7 3158 	ldr.w	r3, [r7, #344]	@ 0x158
 8000a38:	4413      	add	r3, r2
 8000a3a:	781b      	ldrb	r3, [r3, #0]
 8000a3c:	461a      	mov	r2, r3
 8000a3e:	1d3b      	adds	r3, r7, #4
 8000a40:	4940      	ldr	r1, [pc, #256]	@ (8000b44 <main+0x218>)
 8000a42:	4618      	mov	r0, r3
 8000a44:	f001 fcde 	bl	8002404 <siprintf>
			  writeTextLine(LINE_2, tmp);
 8000a48:	1d3b      	adds	r3, r7, #4
 8000a4a:	4619      	mov	r1, r3
 8000a4c:	2002      	movs	r0, #2
 8000a4e:	f000 fcd1 	bl	80013f4 <writeTextLine>

			  if (num_input % 2 == 0 && num_input != 0)
 8000a52:	f8d7 3164 	ldr.w	r3, [r7, #356]	@ 0x164
 8000a56:	f003 0301 	and.w	r3, r3, #1
 8000a5a:	2b00      	cmp	r3, #0
 8000a5c:	d158      	bne.n	8000b10 <main+0x1e4>
 8000a5e:	f8d7 3164 	ldr.w	r3, [r7, #356]	@ 0x164
 8000a62:	2b00      	cmp	r3, #0
 8000a64:	d054      	beq.n	8000b10 <main+0x1e4>
			  {
				  index++;
 8000a66:	f8d7 3158 	ldr.w	r3, [r7, #344]	@ 0x158
 8000a6a:	3301      	adds	r3, #1
 8000a6c:	f8c7 3158 	str.w	r3, [r7, #344]	@ 0x158
				  if (index % 4 == 0 && index != 0)
 8000a70:	f8d7 3158 	ldr.w	r3, [r7, #344]	@ 0x158
 8000a74:	f003 0303 	and.w	r3, r3, #3
 8000a78:	2b00      	cmp	r3, #0
 8000a7a:	d149      	bne.n	8000b10 <main+0x1e4>
 8000a7c:	f8d7 3158 	ldr.w	r3, [r7, #344]	@ 0x158
 8000a80:	2b00      	cmp	r3, #0
 8000a82:	d045      	beq.n	8000b10 <main+0x1e4>
				  {
					  sprintf(buf[i], "0x%02x0x%02x0x%02x0x%02x", MK[index-4], MK[index-3], MK[index-2], MK[index-1]);
 8000a84:	f507 728c 	add.w	r2, r7, #280	@ 0x118
 8000a88:	f8d7 315c 	ldr.w	r3, [r7, #348]	@ 0x15c
 8000a8c:	011b      	lsls	r3, r3, #4
 8000a8e:	18d0      	adds	r0, r2, r3
 8000a90:	f8d7 3158 	ldr.w	r3, [r7, #344]	@ 0x158
 8000a94:	3b04      	subs	r3, #4
 8000a96:	f503 73b4 	add.w	r3, r3, #360	@ 0x168
 8000a9a:	443b      	add	r3, r7
 8000a9c:	f813 3c60 	ldrb.w	r3, [r3, #-96]
 8000aa0:	4619      	mov	r1, r3
 8000aa2:	f8d7 3158 	ldr.w	r3, [r7, #344]	@ 0x158
 8000aa6:	3b03      	subs	r3, #3
 8000aa8:	f503 73b4 	add.w	r3, r3, #360	@ 0x168
 8000aac:	443b      	add	r3, r7
 8000aae:	f813 3c60 	ldrb.w	r3, [r3, #-96]
 8000ab2:	461c      	mov	r4, r3
 8000ab4:	f8d7 3158 	ldr.w	r3, [r7, #344]	@ 0x158
 8000ab8:	3b02      	subs	r3, #2
 8000aba:	f503 73b4 	add.w	r3, r3, #360	@ 0x168
 8000abe:	443b      	add	r3, r7
 8000ac0:	f813 3c60 	ldrb.w	r3, [r3, #-96]
 8000ac4:	461a      	mov	r2, r3
 8000ac6:	f8d7 3158 	ldr.w	r3, [r7, #344]	@ 0x158
 8000aca:	3b01      	subs	r3, #1
 8000acc:	f503 73b4 	add.w	r3, r3, #360	@ 0x168
 8000ad0:	443b      	add	r3, r7
 8000ad2:	f813 3c60 	ldrb.w	r3, [r3, #-96]
 8000ad6:	9301      	str	r3, [sp, #4]
 8000ad8:	9200      	str	r2, [sp, #0]
 8000ada:	4623      	mov	r3, r4
 8000adc:	460a      	mov	r2, r1
 8000ade:	491a      	ldr	r1, [pc, #104]	@ (8000b48 <main+0x21c>)
 8000ae0:	f001 fc90 	bl	8002404 <siprintf>
					  writeTextLine(LINE_2, buf[i]);
 8000ae4:	f507 728c 	add.w	r2, r7, #280	@ 0x118
 8000ae8:	f8d7 315c 	ldr.w	r3, [r7, #348]	@ 0x15c
 8000aec:	011b      	lsls	r3, r3, #4
 8000aee:	4413      	add	r3, r2
 8000af0:	4619      	mov	r1, r3
 8000af2:	2002      	movs	r0, #2
 8000af4:	f000 fc7e 	bl	80013f4 <writeTextLine>
					  HAL_Delay(500);
 8000af8:	f44f 70fa 	mov.w	r0, #500	@ 0x1f4
 8000afc:	f000 fd42 	bl	8001584 <HAL_Delay>
					  clearScreen(LINE_2);
 8000b00:	2002      	movs	r0, #2
 8000b02:	f000 fc0a 	bl	800131a <clearScreen>
					  i++;
 8000b06:	f8d7 315c 	ldr.w	r3, [r7, #348]	@ 0x15c
 8000b0a:	3301      	adds	r3, #1
 8000b0c:	f8c7 315c 	str.w	r3, [r7, #348]	@ 0x15c
	  while (num_input < 32)
 8000b10:	f8d7 3164 	ldr.w	r3, [r7, #356]	@ 0x164
 8000b14:	2b1f      	cmp	r3, #31
 8000b16:	f77f af48 	ble.w	80009aa <main+0x7e>
				  }

			  }
		  }
	  }
	  clearScreen(ALL_LINE);
 8000b1a:	2000      	movs	r0, #0
 8000b1c:	f000 fbfd 	bl	800131a <clearScreen>

	  KeyGen128(MK, RK);
 8000b20:	f107 0218 	add.w	r2, r7, #24
 8000b24:	f507 7384 	add.w	r3, r7, #264	@ 0x108
 8000b28:	4611      	mov	r1, r2
 8000b2a:	4618      	mov	r0, r3
 8000b2c:	f7ff fd20 	bl	8000570 <KeyGen128>
  {
 8000b30:	e734      	b.n	800099c <main+0x70>
 8000b32:	bf00      	nop
 8000b34:	08002dd4 	.word	0x08002dd4
 8000b38:	08002da4 	.word	0x08002da4
 8000b3c:	20000188 	.word	0x20000188
 8000b40:	20000189 	.word	0x20000189
 8000b44:	08002db0 	.word	0x08002db0
 8000b48:	08002db8 	.word	0x08002db8

08000b4c <SystemClock_Config>:
/**
  * @brief System Clock Configuration
  * @retval None
  */
void SystemClock_Config(void)
{
 8000b4c:	b580      	push	{r7, lr}
 8000b4e:	b094      	sub	sp, #80	@ 0x50
 8000b50:	af00      	add	r7, sp, #0
  RCC_OscInitTypeDef RCC_OscInitStruct = {0};
 8000b52:	f107 0320 	add.w	r3, r7, #32
 8000b56:	2230      	movs	r2, #48	@ 0x30
 8000b58:	2100      	movs	r1, #0
 8000b5a:	4618      	mov	r0, r3
 8000b5c:	f001 fc85 	bl	800246a <memset>
  RCC_ClkInitTypeDef RCC_ClkInitStruct = {0};
 8000b60:	f107 030c 	add.w	r3, r7, #12
 8000b64:	2200      	movs	r2, #0
 8000b66:	601a      	str	r2, [r3, #0]
 8000b68:	605a      	str	r2, [r3, #4]
 8000b6a:	609a      	str	r2, [r3, #8]
 8000b6c:	60da      	str	r2, [r3, #12]
 8000b6e:	611a      	str	r2, [r3, #16]

  /** Configure the main internal regulator output voltage
  */
  __HAL_RCC_PWR_CLK_ENABLE();
 8000b70:	2300      	movs	r3, #0
 8000b72:	60bb      	str	r3, [r7, #8]
 8000b74:	4b22      	ldr	r3, [pc, #136]	@ (8000c00 <SystemClock_Config+0xb4>)
 8000b76:	6c1b      	ldr	r3, [r3, #64]	@ 0x40
 8000b78:	4a21      	ldr	r2, [pc, #132]	@ (8000c00 <SystemClock_Config+0xb4>)
 8000b7a:	f043 5380 	orr.w	r3, r3, #268435456	@ 0x10000000
 8000b7e:	6413      	str	r3, [r2, #64]	@ 0x40
 8000b80:	4b1f      	ldr	r3, [pc, #124]	@ (8000c00 <SystemClock_Config+0xb4>)
 8000b82:	6c1b      	ldr	r3, [r3, #64]	@ 0x40
 8000b84:	f003 5380 	and.w	r3, r3, #268435456	@ 0x10000000
 8000b88:	60bb      	str	r3, [r7, #8]
 8000b8a:	68bb      	ldr	r3, [r7, #8]
  __HAL_PWR_VOLTAGESCALING_CONFIG(PWR_REGULATOR_VOLTAGE_SCALE1);
 8000b8c:	2300      	movs	r3, #0
 8000b8e:	607b      	str	r3, [r7, #4]
 8000b90:	4b1c      	ldr	r3, [pc, #112]	@ (8000c04 <SystemClock_Config+0xb8>)
 8000b92:	681b      	ldr	r3, [r3, #0]
 8000b94:	4a1b      	ldr	r2, [pc, #108]	@ (8000c04 <SystemClock_Config+0xb8>)
 8000b96:	f443 4380 	orr.w	r3, r3, #16384	@ 0x4000
 8000b9a:	6013      	str	r3, [r2, #0]
 8000b9c:	4b19      	ldr	r3, [pc, #100]	@ (8000c04 <SystemClock_Config+0xb8>)
 8000b9e:	681b      	ldr	r3, [r3, #0]
 8000ba0:	f403 4380 	and.w	r3, r3, #16384	@ 0x4000
 8000ba4:	607b      	str	r3, [r7, #4]
 8000ba6:	687b      	ldr	r3, [r7, #4]

  /** Initializes the RCC Oscillators according to the specified parameters
  * in the RCC_OscInitTypeDef structure.
  */
  RCC_OscInitStruct.OscillatorType = RCC_OSCILLATORTYPE_HSI;
 8000ba8:	2302      	movs	r3, #2
 8000baa:	623b      	str	r3, [r7, #32]
  RCC_OscInitStruct.HSIState = RCC_HSI_ON;
 8000bac:	2301      	movs	r3, #1
 8000bae:	62fb      	str	r3, [r7, #44]	@ 0x2c
  RCC_OscInitStruct.HSICalibrationValue = RCC_HSICALIBRATION_DEFAULT;
 8000bb0:	2310      	movs	r3, #16
 8000bb2:	633b      	str	r3, [r7, #48]	@ 0x30
  RCC_OscInitStruct.PLL.PLLState = RCC_PLL_NONE;
 8000bb4:	2300      	movs	r3, #0
 8000bb6:	63bb      	str	r3, [r7, #56]	@ 0x38
  if (HAL_RCC_OscConfig(&RCC_OscInitStruct) != HAL_OK)
 8000bb8:	f107 0320 	add.w	r3, r7, #32
 8000bbc:	4618      	mov	r0, r3
 8000bbe:	f000 fffd 	bl	8001bbc <HAL_RCC_OscConfig>
 8000bc2:	4603      	mov	r3, r0
 8000bc4:	2b00      	cmp	r3, #0
 8000bc6:	d001      	beq.n	8000bcc <SystemClock_Config+0x80>
  {
    Error_Handler();
 8000bc8:	f000 f8f4 	bl	8000db4 <Error_Handler>
  }

  /** Initializes the CPU, AHB and APB buses clocks
  */
  RCC_ClkInitStruct.ClockType = RCC_CLOCKTYPE_HCLK|RCC_CLOCKTYPE_SYSCLK
 8000bcc:	230f      	movs	r3, #15
 8000bce:	60fb      	str	r3, [r7, #12]
                              |RCC_CLOCKTYPE_PCLK1|RCC_CLOCKTYPE_PCLK2;
  RCC_ClkInitStruct.SYSCLKSource = RCC_SYSCLKSOURCE_HSI;
 8000bd0:	2300      	movs	r3, #0
 8000bd2:	613b      	str	r3, [r7, #16]
  RCC_ClkInitStruct.AHBCLKDivider = RCC_SYSCLK_DIV1;
 8000bd4:	2300      	movs	r3, #0
 8000bd6:	617b      	str	r3, [r7, #20]
  RCC_ClkInitStruct.APB1CLKDivider = RCC_HCLK_DIV1;
 8000bd8:	2300      	movs	r3, #0
 8000bda:	61bb      	str	r3, [r7, #24]
  RCC_ClkInitStruct.APB2CLKDivider = RCC_HCLK_DIV1;
 8000bdc:	2300      	movs	r3, #0
 8000bde:	61fb      	str	r3, [r7, #28]

  if (HAL_RCC_ClockConfig(&RCC_ClkInitStruct, FLASH_LATENCY_0) != HAL_OK)
 8000be0:	f107 030c 	add.w	r3, r7, #12
 8000be4:	2100      	movs	r1, #0
 8000be6:	4618      	mov	r0, r3
 8000be8:	f001 fa60 	bl	80020ac <HAL_RCC_ClockConfig>
 8000bec:	4603      	mov	r3, r0
 8000bee:	2b00      	cmp	r3, #0
 8000bf0:	d001      	beq.n	8000bf6 <SystemClock_Config+0xaa>
  {
    Error_Handler();
 8000bf2:	f000 f8df 	bl	8000db4 <Error_Handler>
  }
}
 8000bf6:	bf00      	nop
 8000bf8:	3750      	adds	r7, #80	@ 0x50
 8000bfa:	46bd      	mov	sp, r7
 8000bfc:	bd80      	pop	{r7, pc}
 8000bfe:	bf00      	nop
 8000c00:	40023800 	.word	0x40023800
 8000c04:	40007000 	.word	0x40007000

08000c08 <MX_GPIO_Init>:
  * @brief GPIO Initialization Function
  * @param None
  * @retval None
  */
static void MX_GPIO_Init(void)
{
 8000c08:	b580      	push	{r7, lr}
 8000c0a:	b088      	sub	sp, #32
 8000c0c:	af00      	add	r7, sp, #0
  GPIO_InitTypeDef GPIO_InitStruct = {0};
 8000c0e:	f107 030c 	add.w	r3, r7, #12
 8000c12:	2200      	movs	r2, #0
 8000c14:	601a      	str	r2, [r3, #0]
 8000c16:	605a      	str	r2, [r3, #4]
 8000c18:	609a      	str	r2, [r3, #8]
 8000c1a:	60da      	str	r2, [r3, #12]
 8000c1c:	611a      	str	r2, [r3, #16]
/* USER CODE BEGIN MX_GPIO_Init_1 */
/* USER CODE END MX_GPIO_Init_1 */

  /* GPIO Ports Clock Enable */
  __HAL_RCC_GPIOE_CLK_ENABLE();
 8000c1e:	2300      	movs	r3, #0
 8000c20:	60bb      	str	r3, [r7, #8]
 8000c22:	4b4d      	ldr	r3, [pc, #308]	@ (8000d58 <MX_GPIO_Init+0x150>)
 8000c24:	6b1b      	ldr	r3, [r3, #48]	@ 0x30
 8000c26:	4a4c      	ldr	r2, [pc, #304]	@ (8000d58 <MX_GPIO_Init+0x150>)
 8000c28:	f043 0310 	orr.w	r3, r3, #16
 8000c2c:	6313      	str	r3, [r2, #48]	@ 0x30
 8000c2e:	4b4a      	ldr	r3, [pc, #296]	@ (8000d58 <MX_GPIO_Init+0x150>)
 8000c30:	6b1b      	ldr	r3, [r3, #48]	@ 0x30
 8000c32:	f003 0310 	and.w	r3, r3, #16
 8000c36:	60bb      	str	r3, [r7, #8]
 8000c38:	68bb      	ldr	r3, [r7, #8]
  __HAL_RCC_GPIOC_CLK_ENABLE();
 8000c3a:	2300      	movs	r3, #0
 8000c3c:	607b      	str	r3, [r7, #4]
 8000c3e:	4b46      	ldr	r3, [pc, #280]	@ (8000d58 <MX_GPIO_Init+0x150>)
 8000c40:	6b1b      	ldr	r3, [r3, #48]	@ 0x30
 8000c42:	4a45      	ldr	r2, [pc, #276]	@ (8000d58 <MX_GPIO_Init+0x150>)
 8000c44:	f043 0304 	orr.w	r3, r3, #4
 8000c48:	6313      	str	r3, [r2, #48]	@ 0x30
 8000c4a:	4b43      	ldr	r3, [pc, #268]	@ (8000d58 <MX_GPIO_Init+0x150>)
 8000c4c:	6b1b      	ldr	r3, [r3, #48]	@ 0x30
 8000c4e:	f003 0304 	and.w	r3, r3, #4
 8000c52:	607b      	str	r3, [r7, #4]
 8000c54:	687b      	ldr	r3, [r7, #4]
  __HAL_RCC_GPIOD_CLK_ENABLE();
 8000c56:	2300      	movs	r3, #0
 8000c58:	603b      	str	r3, [r7, #0]
 8000c5a:	4b3f      	ldr	r3, [pc, #252]	@ (8000d58 <MX_GPIO_Init+0x150>)
 8000c5c:	6b1b      	ldr	r3, [r3, #48]	@ 0x30
 8000c5e:	4a3e      	ldr	r2, [pc, #248]	@ (8000d58 <MX_GPIO_Init+0x150>)
 8000c60:	f043 0308 	orr.w	r3, r3, #8
 8000c64:	6313      	str	r3, [r2, #48]	@ 0x30
 8000c66:	4b3c      	ldr	r3, [pc, #240]	@ (8000d58 <MX_GPIO_Init+0x150>)
 8000c68:	6b1b      	ldr	r3, [r3, #48]	@ 0x30
 8000c6a:	f003 0308 	and.w	r3, r3, #8
 8000c6e:	603b      	str	r3, [r7, #0]
 8000c70:	683b      	ldr	r3, [r7, #0]

  /*Configure GPIO pin Output Level */
  HAL_GPIO_WritePin(GPIOC, GPIO_PIN_0|GPIO_PIN_1|GPIO_PIN_2|GPIO_PIN_3
 8000c72:	2200      	movs	r2, #0
 8000c74:	213f      	movs	r1, #63	@ 0x3f
 8000c76:	4839      	ldr	r0, [pc, #228]	@ (8000d5c <MX_GPIO_Init+0x154>)
 8000c78:	f000 ff6e 	bl	8001b58 <HAL_GPIO_WritePin>
                          |GPIO_PIN_4|GPIO_PIN_5, GPIO_PIN_RESET);

  /*Configure GPIO pin Output Level */
  HAL_GPIO_WritePin(GPIOD, GPIO_PIN_8|GPIO_PIN_9|GPIO_PIN_10|GPIO_PIN_11
 8000c7c:	2200      	movs	r2, #0
 8000c7e:	f44f 417f 	mov.w	r1, #65280	@ 0xff00
 8000c82:	4837      	ldr	r0, [pc, #220]	@ (8000d60 <MX_GPIO_Init+0x158>)
 8000c84:	f000 ff68 	bl	8001b58 <HAL_GPIO_WritePin>

  /*Configure GPIO pins : PE2 PE3 PE4 PE5
                           PE6 PE7 PE8 PE9
                           PE10 PE11 PE12 PE13
                           PE14 PE15 PE0 PE1 */
  GPIO_InitStruct.Pin = GPIO_PIN_2|GPIO_PIN_3|GPIO_PIN_4|GPIO_PIN_5
 8000c88:	f64f 73ff 	movw	r3, #65535	@ 0xffff
 8000c8c:	60fb      	str	r3, [r7, #12]
                          |GPIO_PIN_6|GPIO_PIN_7|GPIO_PIN_8|GPIO_PIN_9
                          |GPIO_PIN_10|GPIO_PIN_11|GPIO_PIN_12|GPIO_PIN_13
                          |GPIO_PIN_14|GPIO_PIN_15|GPIO_PIN_0|GPIO_PIN_1;
  GPIO_InitStruct.Mode = GPIO_MODE_IT_RISING;
 8000c8e:	f44f 1388 	mov.w	r3, #1114112	@ 0x110000
 8000c92:	613b      	str	r3, [r7, #16]
  GPIO_InitStruct.Pull = GPIO_NOPULL;
 8000c94:	2300      	movs	r3, #0
 8000c96:	617b      	str	r3, [r7, #20]
  HAL_GPIO_Init(GPIOE, &GPIO_InitStruct);
 8000c98:	f107 030c 	add.w	r3, r7, #12
 8000c9c:	4619      	mov	r1, r3
 8000c9e:	4831      	ldr	r0, [pc, #196]	@ (8000d64 <MX_GPIO_Init+0x15c>)
 8000ca0:	f000 fda6 	bl	80017f0 <HAL_GPIO_Init>

  /*Configure GPIO pins : PC0 PC1 PC2 PC3
                           PC4 PC5 */
  GPIO_InitStruct.Pin = GPIO_PIN_0|GPIO_PIN_1|GPIO_PIN_2|GPIO_PIN_3
 8000ca4:	233f      	movs	r3, #63	@ 0x3f
 8000ca6:	60fb      	str	r3, [r7, #12]
                          |GPIO_PIN_4|GPIO_PIN_5;
  GPIO_InitStruct.Mode = GPIO_MODE_OUTPUT_PP;
 8000ca8:	2301      	movs	r3, #1
 8000caa:	613b      	str	r3, [r7, #16]
  GPIO_InitStruct.Pull = GPIO_NOPULL;
 8000cac:	2300      	movs	r3, #0
 8000cae:	617b      	str	r3, [r7, #20]
  GPIO_InitStruct.Speed = GPIO_SPEED_FREQ_LOW;
 8000cb0:	2300      	movs	r3, #0
 8000cb2:	61bb      	str	r3, [r7, #24]
  HAL_GPIO_Init(GPIOC, &GPIO_InitStruct);
 8000cb4:	f107 030c 	add.w	r3, r7, #12
 8000cb8:	4619      	mov	r1, r3
 8000cba:	4828      	ldr	r0, [pc, #160]	@ (8000d5c <MX_GPIO_Init+0x154>)
 8000cbc:	f000 fd98 	bl	80017f0 <HAL_GPIO_Init>

  /*Configure GPIO pins : PD8 PD9 PD10 PD11
                           PD12 PD13 PD14 PD15 */
  GPIO_InitStruct.Pin = GPIO_PIN_8|GPIO_PIN_9|GPIO_PIN_10|GPIO_PIN_11
 8000cc0:	f44f 437f 	mov.w	r3, #65280	@ 0xff00
 8000cc4:	60fb      	str	r3, [r7, #12]
                          |GPIO_PIN_12|GPIO_PIN_13|GPIO_PIN_14|GPIO_PIN_15;
  GPIO_InitStruct.Mode = GPIO_MODE_OUTPUT_PP;
 8000cc6:	2301      	movs	r3, #1
 8000cc8:	613b      	str	r3, [r7, #16]
  GPIO_InitStruct.Pull = GPIO_NOPULL;
 8000cca:	2300      	movs	r3, #0
 8000ccc:	617b      	str	r3, [r7, #20]
  GPIO_InitStruct.Speed = GPIO_SPEED_FREQ_LOW;
 8000cce:	2300      	movs	r3, #0
 8000cd0:	61bb      	str	r3, [r7, #24]
  HAL_GPIO_Init(GPIOD, &GPIO_InitStruct);
 8000cd2:	f107 030c 	add.w	r3, r7, #12
 8000cd6:	4619      	mov	r1, r3
 8000cd8:	4821      	ldr	r0, [pc, #132]	@ (8000d60 <MX_GPIO_Init+0x158>)
 8000cda:	f000 fd89 	bl	80017f0 <HAL_GPIO_Init>

  /* EXTI interrupt init*/
  HAL_NVIC_SetPriority(EXTI0_IRQn, 0, 0);
 8000cde:	2200      	movs	r2, #0
 8000ce0:	2100      	movs	r1, #0
 8000ce2:	2006      	movs	r0, #6
 8000ce4:	f000 fd4d 	bl	8001782 <HAL_NVIC_SetPriority>
  HAL_NVIC_EnableIRQ(EXTI0_IRQn);
 8000ce8:	2006      	movs	r0, #6
 8000cea:	f000 fd66 	bl	80017ba <HAL_NVIC_EnableIRQ>

  HAL_NVIC_SetPriority(EXTI1_IRQn, 0, 0);
 8000cee:	2200      	movs	r2, #0
 8000cf0:	2100      	movs	r1, #0
 8000cf2:	2007      	movs	r0, #7
 8000cf4:	f000 fd45 	bl	8001782 <HAL_NVIC_SetPriority>
  HAL_NVIC_EnableIRQ(EXTI1_IRQn);
 8000cf8:	2007      	movs	r0, #7
 8000cfa:	f000 fd5e 	bl	80017ba <HAL_NVIC_EnableIRQ>

  HAL_NVIC_SetPriority(EXTI2_IRQn, 0, 0);
 8000cfe:	2200      	movs	r2, #0
 8000d00:	2100      	movs	r1, #0
 8000d02:	2008      	movs	r0, #8
 8000d04:	f000 fd3d 	bl	8001782 <HAL_NVIC_SetPriority>
  HAL_NVIC_EnableIRQ(EXTI2_IRQn);
 8000d08:	2008      	movs	r0, #8
 8000d0a:	f000 fd56 	bl	80017ba <HAL_NVIC_EnableIRQ>

  HAL_NVIC_SetPriority(EXTI3_IRQn, 0, 0);
 8000d0e:	2200      	movs	r2, #0
 8000d10:	2100      	movs	r1, #0
 8000d12:	2009      	movs	r0, #9
 8000d14:	f000 fd35 	bl	8001782 <HAL_NVIC_SetPriority>
  HAL_NVIC_EnableIRQ(EXTI3_IRQn);
 8000d18:	2009      	movs	r0, #9
 8000d1a:	f000 fd4e 	bl	80017ba <HAL_NVIC_EnableIRQ>

  HAL_NVIC_SetPriority(EXTI4_IRQn, 0, 0);
 8000d1e:	2200      	movs	r2, #0
 8000d20:	2100      	movs	r1, #0
 8000d22:	200a      	movs	r0, #10
 8000d24:	f000 fd2d 	bl	8001782 <HAL_NVIC_SetPriority>
  HAL_NVIC_EnableIRQ(EXTI4_IRQn);
 8000d28:	200a      	movs	r0, #10
 8000d2a:	f000 fd46 	bl	80017ba <HAL_NVIC_EnableIRQ>

  HAL_NVIC_SetPriority(EXTI9_5_IRQn, 0, 0);
 8000d2e:	2200      	movs	r2, #0
 8000d30:	2100      	movs	r1, #0
 8000d32:	2017      	movs	r0, #23
 8000d34:	f000 fd25 	bl	8001782 <HAL_NVIC_SetPriority>
  HAL_NVIC_EnableIRQ(EXTI9_5_IRQn);
 8000d38:	2017      	movs	r0, #23
 8000d3a:	f000 fd3e 	bl	80017ba <HAL_NVIC_EnableIRQ>

  HAL_NVIC_SetPriority(EXTI15_10_IRQn, 0, 0);
 8000d3e:	2200      	movs	r2, #0
 8000d40:	2100      	movs	r1, #0
 8000d42:	2028      	movs	r0, #40	@ 0x28
 8000d44:	f000 fd1d 	bl	8001782 <HAL_NVIC_SetPriority>
  HAL_NVIC_EnableIRQ(EXTI15_10_IRQn);
 8000d48:	2028      	movs	r0, #40	@ 0x28
 8000d4a:	f000 fd36 	bl	80017ba <HAL_NVIC_EnableIRQ>

/* USER CODE BEGIN MX_GPIO_Init_2 */
/* USER CODE END MX_GPIO_Init_2 */
}
 8000d4e:	bf00      	nop
 8000d50:	3720      	adds	r7, #32
 8000d52:	46bd      	mov	sp, r7
 8000d54:	bd80      	pop	{r7, pc}
 8000d56:	bf00      	nop
 8000d58:	40023800 	.word	0x40023800
 8000d5c:	40020800 	.word	0x40020800
 8000d60:	40020c00 	.word	0x40020c00
 8000d64:	40021000 	.word	0x40021000

08000d68 <HAL_GPIO_EXTI_Callback>:

/* USER CODE BEGIN 4 */
void HAL_GPIO_EXTI_Callback(uint16_t GPIO_Pin)
{
 8000d68:	b480      	push	{r7}
 8000d6a:	b085      	sub	sp, #20
 8000d6c:	af00      	add	r7, sp, #0
 8000d6e:	4603      	mov	r3, r0
 8000d70:	80fb      	strh	r3, [r7, #6]
	for (int i = 0; i < 16; i++)
 8000d72:	2300      	movs	r3, #0
 8000d74:	60fb      	str	r3, [r7, #12]
 8000d76:	e00f      	b.n	8000d98 <HAL_GPIO_EXTI_Callback+0x30>
	{
		if ((GPIO_Pin >> i) == 0x0001)
 8000d78:	88fa      	ldrh	r2, [r7, #6]
 8000d7a:	68fb      	ldr	r3, [r7, #12]
 8000d7c:	fa42 f303 	asr.w	r3, r2, r3
 8000d80:	2b01      	cmp	r3, #1
 8000d82:	d106      	bne.n	8000d92 <HAL_GPIO_EXTI_Callback+0x2a>
		{
			input = i;
 8000d84:	68fb      	ldr	r3, [r7, #12]
 8000d86:	b2da      	uxtb	r2, r3
 8000d88:	4b08      	ldr	r3, [pc, #32]	@ (8000dac <HAL_GPIO_EXTI_Callback+0x44>)
 8000d8a:	701a      	strb	r2, [r3, #0]
			INPUT_FLAG = True;
 8000d8c:	4b08      	ldr	r3, [pc, #32]	@ (8000db0 <HAL_GPIO_EXTI_Callback+0x48>)
 8000d8e:	2201      	movs	r2, #1
 8000d90:	701a      	strb	r2, [r3, #0]
	for (int i = 0; i < 16; i++)
 8000d92:	68fb      	ldr	r3, [r7, #12]
 8000d94:	3301      	adds	r3, #1
 8000d96:	60fb      	str	r3, [r7, #12]
 8000d98:	68fb      	ldr	r3, [r7, #12]
 8000d9a:	2b0f      	cmp	r3, #15
 8000d9c:	ddec      	ble.n	8000d78 <HAL_GPIO_EXTI_Callback+0x10>
		}
	}
}
 8000d9e:	bf00      	nop
 8000da0:	bf00      	nop
 8000da2:	3714      	adds	r7, #20
 8000da4:	46bd      	mov	sp, r7
 8000da6:	f85d 7b04 	ldr.w	r7, [sp], #4
 8000daa:	4770      	bx	lr
 8000dac:	20000189 	.word	0x20000189
 8000db0:	20000188 	.word	0x20000188

08000db4 <Error_Handler>:
/**
  * @brief  This function is executed in case of error occurrence.
  * @retval None
  */
void Error_Handler(void)
{
 8000db4:	b480      	push	{r7}
 8000db6:	af00      	add	r7, sp, #0
  \details Disables IRQ interrupts by setting special-purpose register PRIMASK.
           Can only be executed in Privileged modes.
 */
__STATIC_FORCEINLINE void __disable_irq(void)
{
  __ASM volatile ("cpsid i" : : : "memory");
 8000db8:	b672      	cpsid	i
}
 8000dba:	bf00      	nop
  /* USER CODE BEGIN Error_Handler_Debug */
  /* User can add his own implementation to report the HAL error return state */
  __disable_irq();
  while (1)
 8000dbc:	bf00      	nop
 8000dbe:	e7fd      	b.n	8000dbc <Error_Handler+0x8>

08000dc0 <HAL_MspInit>:
/* USER CODE END 0 */
/**
  * Initializes the Global MSP.
  */
void HAL_MspInit(void)
{
 8000dc0:	b480      	push	{r7}
 8000dc2:	b083      	sub	sp, #12
 8000dc4:	af00      	add	r7, sp, #0

  /* USER CODE BEGIN MspInit 0 */

  /* USER CODE END MspInit 0 */

  __HAL_RCC_SYSCFG_CLK_ENABLE();
 8000dc6:	2300      	movs	r3, #0
 8000dc8:	607b      	str	r3, [r7, #4]
 8000dca:	4b10      	ldr	r3, [pc, #64]	@ (8000e0c <HAL_MspInit+0x4c>)
 8000dcc:	6c5b      	ldr	r3, [r3, #68]	@ 0x44
 8000dce:	4a0f      	ldr	r2, [pc, #60]	@ (8000e0c <HAL_MspInit+0x4c>)
 8000dd0:	f443 4380 	orr.w	r3, r3, #16384	@ 0x4000
 8000dd4:	6453      	str	r3, [r2, #68]	@ 0x44
 8000dd6:	4b0d      	ldr	r3, [pc, #52]	@ (8000e0c <HAL_MspInit+0x4c>)
 8000dd8:	6c5b      	ldr	r3, [r3, #68]	@ 0x44
 8000dda:	f403 4380 	and.w	r3, r3, #16384	@ 0x4000
 8000dde:	607b      	str	r3, [r7, #4]
 8000de0:	687b      	ldr	r3, [r7, #4]
  __HAL_RCC_PWR_CLK_ENABLE();
 8000de2:	2300      	movs	r3, #0
 8000de4:	603b      	str	r3, [r7, #0]
 8000de6:	4b09      	ldr	r3, [pc, #36]	@ (8000e0c <HAL_MspInit+0x4c>)
 8000de8:	6c1b      	ldr	r3, [r3, #64]	@ 0x40
 8000dea:	4a08      	ldr	r2, [pc, #32]	@ (8000e0c <HAL_MspInit+0x4c>)
 8000dec:	f043 5380 	orr.w	r3, r3, #268435456	@ 0x10000000
 8000df0:	6413      	str	r3, [r2, #64]	@ 0x40
 8000df2:	4b06      	ldr	r3, [pc, #24]	@ (8000e0c <HAL_MspInit+0x4c>)
 8000df4:	6c1b      	ldr	r3, [r3, #64]	@ 0x40
 8000df6:	f003 5380 	and.w	r3, r3, #268435456	@ 0x10000000
 8000dfa:	603b      	str	r3, [r7, #0]
 8000dfc:	683b      	ldr	r3, [r7, #0]
  /* System interrupt init*/

  /* USER CODE BEGIN MspInit 1 */

  /* USER CODE END MspInit 1 */
}
 8000dfe:	bf00      	nop
 8000e00:	370c      	adds	r7, #12
 8000e02:	46bd      	mov	sp, r7
 8000e04:	f85d 7b04 	ldr.w	r7, [sp], #4
 8000e08:	4770      	bx	lr
 8000e0a:	bf00      	nop
 8000e0c:	40023800 	.word	0x40023800

08000e10 <NMI_Handler>:
/******************************************************************************/
/**
  * @brief This function handles Non maskable interrupt.
  */
void NMI_Handler(void)
{
 8000e10:	b480      	push	{r7}
 8000e12:	af00      	add	r7, sp, #0
  /* USER CODE BEGIN NonMaskableInt_IRQn 0 */

  /* USER CODE END NonMaskableInt_IRQn 0 */
  /* USER CODE BEGIN NonMaskableInt_IRQn 1 */
   while (1)
 8000e14:	bf00      	nop
 8000e16:	e7fd      	b.n	8000e14 <NMI_Handler+0x4>

08000e18 <HardFault_Handler>:

/**
  * @brief This function handles Hard fault interrupt.
  */
void HardFault_Handler(void)
{
 8000e18:	b480      	push	{r7}
 8000e1a:	af00      	add	r7, sp, #0
  /* USER CODE BEGIN HardFault_IRQn 0 */

  /* USER CODE END HardFault_IRQn 0 */
  while (1)
 8000e1c:	bf00      	nop
 8000e1e:	e7fd      	b.n	8000e1c <HardFault_Handler+0x4>

08000e20 <MemManage_Handler>:

/**
  * @brief This function handles Memory management fault.
  */
void MemManage_Handler(void)
{
 8000e20:	b480      	push	{r7}
 8000e22:	af00      	add	r7, sp, #0
  /* USER CODE BEGIN MemoryManagement_IRQn 0 */

  /* USER CODE END MemoryManagement_IRQn 0 */
  while (1)
 8000e24:	bf00      	nop
 8000e26:	e7fd      	b.n	8000e24 <MemManage_Handler+0x4>

08000e28 <BusFault_Handler>:

/**
  * @brief This function handles Pre-fetch fault, memory access fault.
  */
void BusFault_Handler(void)
{
 8000e28:	b480      	push	{r7}
 8000e2a:	af00      	add	r7, sp, #0
  /* USER CODE BEGIN BusFault_IRQn 0 */

  /* USER CODE END BusFault_IRQn 0 */
  while (1)
 8000e2c:	bf00      	nop
 8000e2e:	e7fd      	b.n	8000e2c <BusFault_Handler+0x4>

08000e30 <UsageFault_Handler>:

/**
  * @brief This function handles Undefined instruction or illegal state.
  */
void UsageFault_Handler(void)
{
 8000e30:	b480      	push	{r7}
 8000e32:	af00      	add	r7, sp, #0
  /* USER CODE BEGIN UsageFault_IRQn 0 */

  /* USER CODE END UsageFault_IRQn 0 */
  while (1)
 8000e34:	bf00      	nop
 8000e36:	e7fd      	b.n	8000e34 <UsageFault_Handler+0x4>

08000e38 <SVC_Handler>:

/**
  * @brief This function handles System service call via SWI instruction.
  */
void SVC_Handler(void)
{
 8000e38:	b480      	push	{r7}
 8000e3a:	af00      	add	r7, sp, #0

  /* USER CODE END SVCall_IRQn 0 */
  /* USER CODE BEGIN SVCall_IRQn 1 */

  /* USER CODE END SVCall_IRQn 1 */
}
 8000e3c:	bf00      	nop
 8000e3e:	46bd      	mov	sp, r7
 8000e40:	f85d 7b04 	ldr.w	r7, [sp], #4
 8000e44:	4770      	bx	lr

08000e46 <DebugMon_Handler>:

/**
  * @brief This function handles Debug monitor.
  */
void DebugMon_Handler(void)
{
 8000e46:	b480      	push	{r7}
 8000e48:	af00      	add	r7, sp, #0

  /* USER CODE END DebugMonitor_IRQn 0 */
  /* USER CODE BEGIN DebugMonitor_IRQn 1 */

  /* USER CODE END DebugMonitor_IRQn 1 */
}
 8000e4a:	bf00      	nop
 8000e4c:	46bd      	mov	sp, r7
 8000e4e:	f85d 7b04 	ldr.w	r7, [sp], #4
 8000e52:	4770      	bx	lr

08000e54 <PendSV_Handler>:

/**
  * @brief This function handles Pendable request for system service.
  */
void PendSV_Handler(void)
{
 8000e54:	b480      	push	{r7}
 8000e56:	af00      	add	r7, sp, #0

  /* USER CODE END PendSV_IRQn 0 */
  /* USER CODE BEGIN PendSV_IRQn 1 */

  /* USER CODE END PendSV_IRQn 1 */
}
 8000e58:	bf00      	nop
 8000e5a:	46bd      	mov	sp, r7
 8000e5c:	f85d 7b04 	ldr.w	r7, [sp], #4
 8000e60:	4770      	bx	lr

08000e62 <SysTick_Handler>:

/**
  * @brief This function handles System tick timer.
  */
void SysTick_Handler(void)
{
 8000e62:	b580      	push	{r7, lr}
 8000e64:	af00      	add	r7, sp, #0
  /* USER CODE BEGIN SysTick_IRQn 0 */

  /* USER CODE END SysTick_IRQn 0 */
  HAL_IncTick();
 8000e66:	f000 fb6d 	bl	8001544 <HAL_IncTick>
  /* USER CODE BEGIN SysTick_IRQn 1 */

  /* USER CODE END SysTick_IRQn 1 */
}
 8000e6a:	bf00      	nop
 8000e6c:	bd80      	pop	{r7, pc}

08000e6e <EXTI0_IRQHandler>:

/**
  * @brief This function handles EXTI line0 interrupt.
  */
void EXTI0_IRQHandler(void)
{
 8000e6e:	b580      	push	{r7, lr}
 8000e70:	af00      	add	r7, sp, #0
  /* USER CODE BEGIN EXTI0_IRQn 0 */

  /* USER CODE END EXTI0_IRQn 0 */
  HAL_GPIO_EXTI_IRQHandler(GPIO_PIN_0);
 8000e72:	2001      	movs	r0, #1
 8000e74:	f000 fe8a 	bl	8001b8c <HAL_GPIO_EXTI_IRQHandler>
  /* USER CODE BEGIN EXTI0_IRQn 1 */

  /* USER CODE END EXTI0_IRQn 1 */
}
 8000e78:	bf00      	nop
 8000e7a:	bd80      	pop	{r7, pc}

08000e7c <EXTI1_IRQHandler>:

/**
  * @brief This function handles EXTI line1 interrupt.
  */
void EXTI1_IRQHandler(void)
{
 8000e7c:	b580      	push	{r7, lr}
 8000e7e:	af00      	add	r7, sp, #0
  /* USER CODE BEGIN EXTI1_IRQn 0 */

  /* USER CODE END EXTI1_IRQn 0 */
  HAL_GPIO_EXTI_IRQHandler(GPIO_PIN_1);
 8000e80:	2002      	movs	r0, #2
 8000e82:	f000 fe83 	bl	8001b8c <HAL_GPIO_EXTI_IRQHandler>
  /* USER CODE BEGIN EXTI1_IRQn 1 */

  /* USER CODE END EXTI1_IRQn 1 */
}
 8000e86:	bf00      	nop
 8000e88:	bd80      	pop	{r7, pc}

08000e8a <EXTI2_IRQHandler>:

/**
  * @brief This function handles EXTI line2 interrupt.
  */
void EXTI2_IRQHandler(void)
{
 8000e8a:	b580      	push	{r7, lr}
 8000e8c:	af00      	add	r7, sp, #0
  /* USER CODE BEGIN EXTI2_IRQn 0 */

  /* USER CODE END EXTI2_IRQn 0 */
  HAL_GPIO_EXTI_IRQHandler(GPIO_PIN_2);
 8000e8e:	2004      	movs	r0, #4
 8000e90:	f000 fe7c 	bl	8001b8c <HAL_GPIO_EXTI_IRQHandler>
  /* USER CODE BEGIN EXTI2_IRQn 1 */

  /* USER CODE END EXTI2_IRQn 1 */
}
 8000e94:	bf00      	nop
 8000e96:	bd80      	pop	{r7, pc}

08000e98 <EXTI3_IRQHandler>:

/**
  * @brief This function handles EXTI line3 interrupt.
  */
void EXTI3_IRQHandler(void)
{
 8000e98:	b580      	push	{r7, lr}
 8000e9a:	af00      	add	r7, sp, #0
  /* USER CODE BEGIN EXTI3_IRQn 0 */

  /* USER CODE END EXTI3_IRQn 0 */
  HAL_GPIO_EXTI_IRQHandler(GPIO_PIN_3);
 8000e9c:	2008      	movs	r0, #8
 8000e9e:	f000 fe75 	bl	8001b8c <HAL_GPIO_EXTI_IRQHandler>
  /* USER CODE BEGIN EXTI3_IRQn 1 */

  /* USER CODE END EXTI3_IRQn 1 */
}
 8000ea2:	bf00      	nop
 8000ea4:	bd80      	pop	{r7, pc}

08000ea6 <EXTI4_IRQHandler>:

/**
  * @brief This function handles EXTI line4 interrupt.
  */
void EXTI4_IRQHandler(void)
{
 8000ea6:	b580      	push	{r7, lr}
 8000ea8:	af00      	add	r7, sp, #0
  /* USER CODE BEGIN EXTI4_IRQn 0 */

  /* USER CODE END EXTI4_IRQn 0 */
  HAL_GPIO_EXTI_IRQHandler(GPIO_PIN_4);
 8000eaa:	2010      	movs	r0, #16
 8000eac:	f000 fe6e 	bl	8001b8c <HAL_GPIO_EXTI_IRQHandler>
  /* USER CODE BEGIN EXTI4_IRQn 1 */

  /* USER CODE END EXTI4_IRQn 1 */
}
 8000eb0:	bf00      	nop
 8000eb2:	bd80      	pop	{r7, pc}

08000eb4 <EXTI9_5_IRQHandler>:

/**
  * @brief This function handles EXTI line[9:5] interrupts.
  */
void EXTI9_5_IRQHandler(void)
{
 8000eb4:	b580      	push	{r7, lr}
 8000eb6:	af00      	add	r7, sp, #0
  /* USER CODE BEGIN EXTI9_5_IRQn 0 */

  /* USER CODE END EXTI9_5_IRQn 0 */
  HAL_GPIO_EXTI_IRQHandler(GPIO_PIN_5);
 8000eb8:	2020      	movs	r0, #32
 8000eba:	f000 fe67 	bl	8001b8c <HAL_GPIO_EXTI_IRQHandler>
  HAL_GPIO_EXTI_IRQHandler(GPIO_PIN_6);
 8000ebe:	2040      	movs	r0, #64	@ 0x40
 8000ec0:	f000 fe64 	bl	8001b8c <HAL_GPIO_EXTI_IRQHandler>
  HAL_GPIO_EXTI_IRQHandler(GPIO_PIN_7);
 8000ec4:	2080      	movs	r0, #128	@ 0x80
 8000ec6:	f000 fe61 	bl	8001b8c <HAL_GPIO_EXTI_IRQHandler>
  HAL_GPIO_EXTI_IRQHandler(GPIO_PIN_8);
 8000eca:	f44f 7080 	mov.w	r0, #256	@ 0x100
 8000ece:	f000 fe5d 	bl	8001b8c <HAL_GPIO_EXTI_IRQHandler>
  HAL_GPIO_EXTI_IRQHandler(GPIO_PIN_9);
 8000ed2:	f44f 7000 	mov.w	r0, #512	@ 0x200
 8000ed6:	f000 fe59 	bl	8001b8c <HAL_GPIO_EXTI_IRQHandler>
  /* USER CODE BEGIN EXTI9_5_IRQn 1 */

  /* USER CODE END EXTI9_5_IRQn 1 */
}
 8000eda:	bf00      	nop
 8000edc:	bd80      	pop	{r7, pc}

08000ede <EXTI15_10_IRQHandler>:

/**
  * @brief This function handles EXTI line[15:10] interrupts.
  */
void EXTI15_10_IRQHandler(void)
{
 8000ede:	b580      	push	{r7, lr}
 8000ee0:	af00      	add	r7, sp, #0
  /* USER CODE BEGIN EXTI15_10_IRQn 0 */

  /* USER CODE END EXTI15_10_IRQn 0 */
  HAL_GPIO_EXTI_IRQHandler(GPIO_PIN_10);
 8000ee2:	f44f 6080 	mov.w	r0, #1024	@ 0x400
 8000ee6:	f000 fe51 	bl	8001b8c <HAL_GPIO_EXTI_IRQHandler>
  HAL_GPIO_EXTI_IRQHandler(GPIO_PIN_11);
 8000eea:	f44f 6000 	mov.w	r0, #2048	@ 0x800
 8000eee:	f000 fe4d 	bl	8001b8c <HAL_GPIO_EXTI_IRQHandler>
  HAL_GPIO_EXTI_IRQHandler(GPIO_PIN_12);
 8000ef2:	f44f 5080 	mov.w	r0, #4096	@ 0x1000
 8000ef6:	f000 fe49 	bl	8001b8c <HAL_GPIO_EXTI_IRQHandler>
  HAL_GPIO_EXTI_IRQHandler(GPIO_PIN_13);
 8000efa:	f44f 5000 	mov.w	r0, #8192	@ 0x2000
 8000efe:	f000 fe45 	bl	8001b8c <HAL_GPIO_EXTI_IRQHandler>
  HAL_GPIO_EXTI_IRQHandler(GPIO_PIN_14);
 8000f02:	f44f 4080 	mov.w	r0, #16384	@ 0x4000
 8000f06:	f000 fe41 	bl	8001b8c <HAL_GPIO_EXTI_IRQHandler>
  HAL_GPIO_EXTI_IRQHandler(GPIO_PIN_15);
 8000f0a:	f44f 4000 	mov.w	r0, #32768	@ 0x8000
 8000f0e:	f000 fe3d 	bl	8001b8c <HAL_GPIO_EXTI_IRQHandler>
  /* USER CODE BEGIN EXTI15_10_IRQn 1 */

  /* USER CODE END EXTI15_10_IRQn 1 */
}
 8000f12:	bf00      	nop
 8000f14:	bd80      	pop	{r7, pc}
	...

08000f18 <_sbrk>:
 *
 * @param incr Memory size
 * @return Pointer to allocated memory
 */
void *_sbrk(ptrdiff_t incr)
{
 8000f18:	b580      	push	{r7, lr}
 8000f1a:	b086      	sub	sp, #24
 8000f1c:	af00      	add	r7, sp, #0
 8000f1e:	6078      	str	r0, [r7, #4]
  extern uint8_t _end; /* Symbol defined in the linker script */
  extern uint8_t _estack; /* Symbol defined in the linker script */
  extern uint32_t _Min_Stack_Size; /* Symbol defined in the linker script */
  const uint32_t stack_limit = (uint32_t)&_estack - (uint32_t)&_Min_Stack_Size;
 8000f20:	4a14      	ldr	r2, [pc, #80]	@ (8000f74 <_sbrk+0x5c>)
 8000f22:	4b15      	ldr	r3, [pc, #84]	@ (8000f78 <_sbrk+0x60>)
 8000f24:	1ad3      	subs	r3, r2, r3
 8000f26:	617b      	str	r3, [r7, #20]
  const uint8_t *max_heap = (uint8_t *)stack_limit;
 8000f28:	697b      	ldr	r3, [r7, #20]
 8000f2a:	613b      	str	r3, [r7, #16]
  uint8_t *prev_heap_end;

  /* Initialize heap end at first call */
  if (NULL == __sbrk_heap_end)
 8000f2c:	4b13      	ldr	r3, [pc, #76]	@ (8000f7c <_sbrk+0x64>)
 8000f2e:	681b      	ldr	r3, [r3, #0]
 8000f30:	2b00      	cmp	r3, #0
 8000f32:	d102      	bne.n	8000f3a <_sbrk+0x22>
  {
    __sbrk_heap_end = &_end;
 8000f34:	4b11      	ldr	r3, [pc, #68]	@ (8000f7c <_sbrk+0x64>)
 8000f36:	4a12      	ldr	r2, [pc, #72]	@ (8000f80 <_sbrk+0x68>)
 8000f38:	601a      	str	r2, [r3, #0]
  }

  /* Protect heap from growing into the reserved MSP stack */
  if (__sbrk_heap_end + incr > max_heap)
 8000f3a:	4b10      	ldr	r3, [pc, #64]	@ (8000f7c <_sbrk+0x64>)
 8000f3c:	681a      	ldr	r2, [r3, #0]
 8000f3e:	687b      	ldr	r3, [r7, #4]
 8000f40:	4413      	add	r3, r2
 8000f42:	693a      	ldr	r2, [r7, #16]
 8000f44:	429a      	cmp	r2, r3
 8000f46:	d207      	bcs.n	8000f58 <_sbrk+0x40>
  {
    errno = ENOMEM;
 8000f48:	f001 fa98 	bl	800247c <__errno>
 8000f4c:	4603      	mov	r3, r0
 8000f4e:	220c      	movs	r2, #12
 8000f50:	601a      	str	r2, [r3, #0]
    return (void *)-1;
 8000f52:	f04f 33ff 	mov.w	r3, #4294967295	@ 0xffffffff
 8000f56:	e009      	b.n	8000f6c <_sbrk+0x54>
  }

  prev_heap_end = __sbrk_heap_end;
 8000f58:	4b08      	ldr	r3, [pc, #32]	@ (8000f7c <_sbrk+0x64>)
 8000f5a:	681b      	ldr	r3, [r3, #0]
 8000f5c:	60fb      	str	r3, [r7, #12]
  __sbrk_heap_end += incr;
 8000f5e:	4b07      	ldr	r3, [pc, #28]	@ (8000f7c <_sbrk+0x64>)
 8000f60:	681a      	ldr	r2, [r3, #0]
 8000f62:	687b      	ldr	r3, [r7, #4]
 8000f64:	4413      	add	r3, r2
 8000f66:	4a05      	ldr	r2, [pc, #20]	@ (8000f7c <_sbrk+0x64>)
 8000f68:	6013      	str	r3, [r2, #0]

  return (void *)prev_heap_end;
 8000f6a:	68fb      	ldr	r3, [r7, #12]
}
 8000f6c:	4618      	mov	r0, r3
 8000f6e:	3718      	adds	r7, #24
 8000f70:	46bd      	mov	sp, r7
 8000f72:	bd80      	pop	{r7, pc}
 8000f74:	20020000 	.word	0x20020000
 8000f78:	00000400 	.word	0x00000400
 8000f7c:	2000018c 	.word	0x2000018c
 8000f80:	200002e0 	.word	0x200002e0

08000f84 <SystemInit>:
  *         configuration.
  * @param  None
  * @retval None
  */
void SystemInit(void)
{
 8000f84:	b480      	push	{r7}
 8000f86:	af00      	add	r7, sp, #0
  /* FPU settings ------------------------------------------------------------*/
  #if (__FPU_PRESENT == 1) && (__FPU_USED == 1)
    SCB->CPACR |= ((3UL << 10*2)|(3UL << 11*2));  /* set CP10 and CP11 Full Access */
 8000f88:	4b06      	ldr	r3, [pc, #24]	@ (8000fa4 <SystemInit+0x20>)
 8000f8a:	f8d3 3088 	ldr.w	r3, [r3, #136]	@ 0x88
 8000f8e:	4a05      	ldr	r2, [pc, #20]	@ (8000fa4 <SystemInit+0x20>)
 8000f90:	f443 0370 	orr.w	r3, r3, #15728640	@ 0xf00000
 8000f94:	f8c2 3088 	str.w	r3, [r2, #136]	@ 0x88

  /* Configure the Vector Table location -------------------------------------*/
#if defined(USER_VECT_TAB_ADDRESS)
  SCB->VTOR = VECT_TAB_BASE_ADDRESS | VECT_TAB_OFFSET; /* Vector Table Relocation in Internal SRAM */
#endif /* USER_VECT_TAB_ADDRESS */
}
 8000f98:	bf00      	nop
 8000f9a:	46bd      	mov	sp, r7
 8000f9c:	f85d 7b04 	ldr.w	r7, [sp], #4
 8000fa0:	4770      	bx	lr
 8000fa2:	bf00      	nop
 8000fa4:	e000ed00 	.word	0xe000ed00

08000fa8 <dataportDirectionOut>:
#define RS_LOW   {HAL_GPIO_WritePin(LCD_SIGNAL_CON, (0x0100 << LCD_RS), GPIO_PIN_RESET);HAL_Delay(1);}

// 4)
// TRUE=> out  , FALSE => In
void dataportDirectionOut(int bTrue)
{
 8000fa8:	b580      	push	{r7, lr}
 8000faa:	b088      	sub	sp, #32
 8000fac:	af00      	add	r7, sp, #0
 8000fae:	6078      	str	r0, [r7, #4]
  GPIO_InitTypeDef  GPIO_InitStruct = {0};
 8000fb0:	f107 030c 	add.w	r3, r7, #12
 8000fb4:	2200      	movs	r2, #0
 8000fb6:	601a      	str	r2, [r3, #0]
 8000fb8:	605a      	str	r2, [r3, #4]
 8000fba:	609a      	str	r2, [r3, #8]
 8000fbc:	60da      	str	r2, [r3, #12]
 8000fbe:	611a      	str	r2, [r3, #16]

  if ( bTrue)
 8000fc0:	687b      	ldr	r3, [r7, #4]
 8000fc2:	2b00      	cmp	r3, #0
 8000fc4:	d008      	beq.n	8000fd8 <dataportDirectionOut+0x30>
  {
    GPIO_InitStruct.Pin = GPIO_PIN_0|GPIO_PIN_1|GPIO_PIN_2|GPIO_PIN_3
 8000fc6:	23ff      	movs	r3, #255	@ 0xff
 8000fc8:	60fb      	str	r3, [r7, #12]
                          |GPIO_PIN_4|GPIO_PIN_5|GPIO_PIN_6|GPIO_PIN_7;
    GPIO_InitStruct.Mode = GPIO_MODE_OUTPUT_PP;
 8000fca:	2301      	movs	r3, #1
 8000fcc:	613b      	str	r3, [r7, #16]
    GPIO_InitStruct.Pull = GPIO_NOPULL;
 8000fce:	2300      	movs	r3, #0
 8000fd0:	617b      	str	r3, [r7, #20]
    GPIO_InitStruct.Speed = GPIO_SPEED_FREQ_LOW;
 8000fd2:	2300      	movs	r3, #0
 8000fd4:	61bb      	str	r3, [r7, #24]
 8000fd6:	e005      	b.n	8000fe4 <dataportDirectionOut+0x3c>
  }
  else
  {
    GPIO_InitStruct.Pin = GPIO_PIN_0|GPIO_PIN_1|GPIO_PIN_2|GPIO_PIN_3
 8000fd8:	23ff      	movs	r3, #255	@ 0xff
 8000fda:	60fb      	str	r3, [r7, #12]
                          |GPIO_PIN_4|GPIO_PIN_5|GPIO_PIN_6|GPIO_PIN_7;
    GPIO_InitStruct.Mode = GPIO_MODE_INPUT;
 8000fdc:	2300      	movs	r3, #0
 8000fde:	613b      	str	r3, [r7, #16]
    GPIO_InitStruct.Pull = GPIO_NOPULL;
 8000fe0:	2300      	movs	r3, #0
 8000fe2:	617b      	str	r3, [r7, #20]
  }
  HAL_GPIO_Init(GPIOC, &GPIO_InitStruct);
 8000fe4:	f107 030c 	add.w	r3, r7, #12
 8000fe8:	4619      	mov	r1, r3
 8000fea:	4803      	ldr	r0, [pc, #12]	@ (8000ff8 <dataportDirectionOut+0x50>)
 8000fec:	f000 fc00 	bl	80017f0 <HAL_GPIO_Init>
}
 8000ff0:	bf00      	nop
 8000ff2:	3720      	adds	r7, #32
 8000ff4:	46bd      	mov	sp, r7
 8000ff6:	bd80      	pop	{r7, pc}
 8000ff8:	40020800 	.word	0x40020800

08000ffc <IsBusy>:

// 5)
int IsBusy()
{
 8000ffc:	b580      	push	{r7, lr}
 8000ffe:	b082      	sub	sp, #8
 8001000:	af00      	add	r7, sp, #0
  int  rdata;
  dataportDirectionOut(FALSE);  // dataport mode: input set
 8001002:	2000      	movs	r0, #0
 8001004:	f7ff ffd0 	bl	8000fa8 <dataportDirectionOut>
  RW_HIGH
 8001008:	2201      	movs	r2, #1
 800100a:	f44f 7100 	mov.w	r1, #512	@ 0x200
 800100e:	481e      	ldr	r0, [pc, #120]	@ (8001088 <IsBusy+0x8c>)
 8001010:	f000 fda2 	bl	8001b58 <HAL_GPIO_WritePin>
 8001014:	2001      	movs	r0, #1
 8001016:	f000 fab5 	bl	8001584 <HAL_Delay>
  RS_LOW
 800101a:	2200      	movs	r2, #0
 800101c:	f44f 7180 	mov.w	r1, #256	@ 0x100
 8001020:	4819      	ldr	r0, [pc, #100]	@ (8001088 <IsBusy+0x8c>)
 8001022:	f000 fd99 	bl	8001b58 <HAL_GPIO_WritePin>
 8001026:	2001      	movs	r0, #1
 8001028:	f000 faac 	bl	8001584 <HAL_Delay>

  E_HIGH
 800102c:	2201      	movs	r2, #1
 800102e:	f44f 6180 	mov.w	r1, #1024	@ 0x400
 8001032:	4815      	ldr	r0, [pc, #84]	@ (8001088 <IsBusy+0x8c>)
 8001034:	f000 fd90 	bl	8001b58 <HAL_GPIO_WritePin>
 8001038:	2001      	movs	r0, #1
 800103a:	f000 faa3 	bl	8001584 <HAL_Delay>

  rdata = HAL_GPIO_ReadPin(LCD_DATA_CON, (0x0001 << BUSY_BIT_nTH)); // data port read
 800103e:	2180      	movs	r1, #128	@ 0x80
 8001040:	4812      	ldr	r0, [pc, #72]	@ (800108c <IsBusy+0x90>)
 8001042:	f000 fd71 	bl	8001b28 <HAL_GPIO_ReadPin>
 8001046:	4603      	mov	r3, r0
 8001048:	607b      	str	r3, [r7, #4]
  E_LOW
 800104a:	2200      	movs	r2, #0
 800104c:	f44f 6180 	mov.w	r1, #1024	@ 0x400
 8001050:	480d      	ldr	r0, [pc, #52]	@ (8001088 <IsBusy+0x8c>)
 8001052:	f000 fd81 	bl	8001b58 <HAL_GPIO_WritePin>
 8001056:	2001      	movs	r0, #1
 8001058:	f000 fa94 	bl	8001584 <HAL_Delay>

  RW_LOW
 800105c:	2200      	movs	r2, #0
 800105e:	f44f 7100 	mov.w	r1, #512	@ 0x200
 8001062:	4809      	ldr	r0, [pc, #36]	@ (8001088 <IsBusy+0x8c>)
 8001064:	f000 fd78 	bl	8001b58 <HAL_GPIO_WritePin>
 8001068:	2001      	movs	r0, #1
 800106a:	f000 fa8b 	bl	8001584 <HAL_Delay>

  if (rdata & Busy_Flag)       // Busy Flag(BF) bit check 
 800106e:	687b      	ldr	r3, [r7, #4]
 8001070:	f003 0310 	and.w	r3, r3, #16
 8001074:	2b00      	cmp	r3, #0
 8001076:	d001      	beq.n	800107c <IsBusy+0x80>
    return TRUE;
 8001078:	2301      	movs	r3, #1
 800107a:	e000      	b.n	800107e <IsBusy+0x82>

  return FALSE;
 800107c:	2300      	movs	r3, #0
}
 800107e:	4618      	mov	r0, r3
 8001080:	3708      	adds	r7, #8
 8001082:	46bd      	mov	sp, r7
 8001084:	bd80      	pop	{r7, pc}
 8001086:	bf00      	nop
 8001088:	40020c00 	.word	0x40020c00
 800108c:	40020800 	.word	0x40020800

08001090 <writeDataPort>:

// 6)
void writeDataPort(int nData)
{
 8001090:	b580      	push	{r7, lr}
 8001092:	b084      	sub	sp, #16
 8001094:	af00      	add	r7, sp, #0
 8001096:	6078      	str	r0, [r7, #4]
  int i;
  for ( i = 0; i < 8 ; i++)
 8001098:	2300      	movs	r3, #0
 800109a:	60fb      	str	r3, [r7, #12]
 800109c:	e01f      	b.n	80010de <writeDataPort+0x4e>
  {
    if ( (nData>>i) & 1 )
 800109e:	687a      	ldr	r2, [r7, #4]
 80010a0:	68fb      	ldr	r3, [r7, #12]
 80010a2:	fa42 f303 	asr.w	r3, r2, r3
 80010a6:	f003 0301 	and.w	r3, r3, #1
 80010aa:	2b00      	cmp	r3, #0
 80010ac:	d00a      	beq.n	80010c4 <writeDataPort+0x34>

      HAL_GPIO_WritePin(LCD_DATA_CON, (0x0001 << i), GPIO_PIN_SET);
 80010ae:	2201      	movs	r2, #1
 80010b0:	68fb      	ldr	r3, [r7, #12]
 80010b2:	fa02 f303 	lsl.w	r3, r2, r3
 80010b6:	b29b      	uxth	r3, r3
 80010b8:	2201      	movs	r2, #1
 80010ba:	4619      	mov	r1, r3
 80010bc:	480c      	ldr	r0, [pc, #48]	@ (80010f0 <writeDataPort+0x60>)
 80010be:	f000 fd4b 	bl	8001b58 <HAL_GPIO_WritePin>
 80010c2:	e009      	b.n	80010d8 <writeDataPort+0x48>
    else
      HAL_GPIO_WritePin(LCD_DATA_CON, (0x0001 << i), GPIO_PIN_RESET);
 80010c4:	2201      	movs	r2, #1
 80010c6:	68fb      	ldr	r3, [r7, #12]
 80010c8:	fa02 f303 	lsl.w	r3, r2, r3
 80010cc:	b29b      	uxth	r3, r3
 80010ce:	2200      	movs	r2, #0
 80010d0:	4619      	mov	r1, r3
 80010d2:	4807      	ldr	r0, [pc, #28]	@ (80010f0 <writeDataPort+0x60>)
 80010d4:	f000 fd40 	bl	8001b58 <HAL_GPIO_WritePin>
  for ( i = 0; i < 8 ; i++)
 80010d8:	68fb      	ldr	r3, [r7, #12]
 80010da:	3301      	adds	r3, #1
 80010dc:	60fb      	str	r3, [r7, #12]
 80010de:	68fb      	ldr	r3, [r7, #12]
 80010e0:	2b07      	cmp	r3, #7
 80010e2:	dddc      	ble.n	800109e <writeDataPort+0xe>
  } 
}
 80010e4:	bf00      	nop
 80010e6:	bf00      	nop
 80010e8:	3710      	adds	r7, #16
 80010ea:	46bd      	mov	sp, r7
 80010ec:	bd80      	pop	{r7, pc}
 80010ee:	bf00      	nop
 80010f0:	40020800 	.word	0x40020800

080010f4 <writeCmd>:

// 7)
int writeCmd(int nCmd)
{
 80010f4:	b580      	push	{r7, lr}
 80010f6:	b082      	sub	sp, #8
 80010f8:	af00      	add	r7, sp, #0
 80010fa:	6078      	str	r0, [r7, #4]
  if ( IsBusy())
 80010fc:	f7ff ff7e 	bl	8000ffc <IsBusy>
 8001100:	4603      	mov	r3, r0
 8001102:	2b00      	cmp	r3, #0
 8001104:	d001      	beq.n	800110a <writeCmd+0x16>
    return FALSE;
 8001106:	2300      	movs	r3, #0
 8001108:	e02d      	b.n	8001166 <writeCmd+0x72>

  dataportDirectionOut(TRUE); // dataport output
 800110a:	2001      	movs	r0, #1
 800110c:	f7ff ff4c 	bl	8000fa8 <dataportDirectionOut>
  
  RW_LOW
 8001110:	2200      	movs	r2, #0
 8001112:	f44f 7100 	mov.w	r1, #512	@ 0x200
 8001116:	4816      	ldr	r0, [pc, #88]	@ (8001170 <writeCmd+0x7c>)
 8001118:	f000 fd1e 	bl	8001b58 <HAL_GPIO_WritePin>
 800111c:	2001      	movs	r0, #1
 800111e:	f000 fa31 	bl	8001584 <HAL_Delay>
    
  RS_LOW
 8001122:	2200      	movs	r2, #0
 8001124:	f44f 7180 	mov.w	r1, #256	@ 0x100
 8001128:	4811      	ldr	r0, [pc, #68]	@ (8001170 <writeCmd+0x7c>)
 800112a:	f000 fd15 	bl	8001b58 <HAL_GPIO_WritePin>
 800112e:	2001      	movs	r0, #1
 8001130:	f000 fa28 	bl	8001584 <HAL_Delay>
    
  writeDataPort(nCmd);
 8001134:	6878      	ldr	r0, [r7, #4]
 8001136:	f7ff ffab 	bl	8001090 <writeDataPort>

  E_HIGH
 800113a:	2201      	movs	r2, #1
 800113c:	f44f 6180 	mov.w	r1, #1024	@ 0x400
 8001140:	480b      	ldr	r0, [pc, #44]	@ (8001170 <writeCmd+0x7c>)
 8001142:	f000 fd09 	bl	8001b58 <HAL_GPIO_WritePin>
 8001146:	2001      	movs	r0, #1
 8001148:	f000 fa1c 	bl	8001584 <HAL_Delay>

  E_LOW
 800114c:	2200      	movs	r2, #0
 800114e:	f44f 6180 	mov.w	r1, #1024	@ 0x400
 8001152:	4807      	ldr	r0, [pc, #28]	@ (8001170 <writeCmd+0x7c>)
 8001154:	f000 fd00 	bl	8001b58 <HAL_GPIO_WritePin>
 8001158:	2001      	movs	r0, #1
 800115a:	f000 fa13 	bl	8001584 <HAL_Delay>
    
  dataportDirectionOut(FALSE); // dataport input
 800115e:	2000      	movs	r0, #0
 8001160:	f7ff ff22 	bl	8000fa8 <dataportDirectionOut>

  return TRUE;
 8001164:	2301      	movs	r3, #1
}
 8001166:	4618      	mov	r0, r3
 8001168:	3708      	adds	r7, #8
 800116a:	46bd      	mov	sp, r7
 800116c:	bd80      	pop	{r7, pc}
 800116e:	bf00      	nop
 8001170:	40020c00 	.word	0x40020c00

08001174 <setDDRAMAddr>:

// 8)
int setDDRAMAddr(int x , int y)
{
 8001174:	b580      	push	{r7, lr}
 8001176:	b084      	sub	sp, #16
 8001178:	af00      	add	r7, sp, #0
 800117a:	6078      	str	r0, [r7, #4]
 800117c:	6039      	str	r1, [r7, #0]
  int cmd = 0;
 800117e:	2300      	movs	r3, #0
 8001180:	60fb      	str	r3, [r7, #12]
  if(IsBusy())
 8001182:	f7ff ff3b 	bl	8000ffc <IsBusy>
 8001186:	4603      	mov	r3, r0
 8001188:	2b00      	cmp	r3, #0
 800118a:	d001      	beq.n	8001190 <setDDRAMAddr+0x1c>
    return FALSE;
 800118c:	2300      	movs	r3, #0
 800118e:	e022      	b.n	80011d6 <setDDRAMAddr+0x62>

  if ( y == 1 )
 8001190:	683b      	ldr	r3, [r7, #0]
 8001192:	2b01      	cmp	r3, #1
 8001194:	d102      	bne.n	800119c <setDDRAMAddr+0x28>
    cmd = DDRAM_ADDR_LINE_1 +x;
 8001196:	687b      	ldr	r3, [r7, #4]
 8001198:	60fb      	str	r3, [r7, #12]
 800119a:	e008      	b.n	80011ae <setDDRAMAddr+0x3a>
  else if(y == 2 )
 800119c:	683b      	ldr	r3, [r7, #0]
 800119e:	2b02      	cmp	r3, #2
 80011a0:	d103      	bne.n	80011aa <setDDRAMAddr+0x36>
    cmd = DDRAM_ADDR_LINE_2 +x;
 80011a2:	687b      	ldr	r3, [r7, #4]
 80011a4:	3340      	adds	r3, #64	@ 0x40
 80011a6:	60fb      	str	r3, [r7, #12]
 80011a8:	e001      	b.n	80011ae <setDDRAMAddr+0x3a>
  else
    return FALSE;
 80011aa:	2300      	movs	r3, #0
 80011ac:	e013      	b.n	80011d6 <setDDRAMAddr+0x62>

  if ( cmd >= 0x80)
 80011ae:	68fb      	ldr	r3, [r7, #12]
 80011b0:	2b7f      	cmp	r3, #127	@ 0x7f
 80011b2:	dd01      	ble.n	80011b8 <setDDRAMAddr+0x44>
    return FALSE;
 80011b4:	2300      	movs	r3, #0
 80011b6:	e00e      	b.n	80011d6 <setDDRAMAddr+0x62>

  if (!writeCmd(cmd | SET_DDRAM_ADD_DEF))
 80011b8:	68fb      	ldr	r3, [r7, #12]
 80011ba:	f043 0380 	orr.w	r3, r3, #128	@ 0x80
 80011be:	4618      	mov	r0, r3
 80011c0:	f7ff ff98 	bl	80010f4 <writeCmd>
 80011c4:	4603      	mov	r3, r0
 80011c6:	2b00      	cmp	r3, #0
 80011c8:	d101      	bne.n	80011ce <setDDRAMAddr+0x5a>
    return FALSE;
 80011ca:	2300      	movs	r3, #0
 80011cc:	e003      	b.n	80011d6 <setDDRAMAddr+0x62>

  HAL_Delay(1);
 80011ce:	2001      	movs	r0, #1
 80011d0:	f000 f9d8 	bl	8001584 <HAL_Delay>
  return TRUE;
 80011d4:	2301      	movs	r3, #1
}
 80011d6:	4618      	mov	r0, r3
 80011d8:	3710      	adds	r7, #16
 80011da:	46bd      	mov	sp, r7
 80011dc:	bd80      	pop	{r7, pc}

080011de <displayMode>:

// 9)
int displayMode(int bCursor, int bCursorblink, int blcd  )
{
 80011de:	b580      	push	{r7, lr}
 80011e0:	b086      	sub	sp, #24
 80011e2:	af00      	add	r7, sp, #0
 80011e4:	60f8      	str	r0, [r7, #12]
 80011e6:	60b9      	str	r1, [r7, #8]
 80011e8:	607a      	str	r2, [r7, #4]
  int cmd  = 0;
 80011ea:	2300      	movs	r3, #0
 80011ec:	617b      	str	r3, [r7, #20]

  if ( bCursor)
 80011ee:	68fb      	ldr	r3, [r7, #12]
 80011f0:	2b00      	cmp	r3, #0
 80011f2:	d001      	beq.n	80011f8 <displayMode+0x1a>
    cmd = DIS_CURSOR;
 80011f4:	2302      	movs	r3, #2
 80011f6:	617b      	str	r3, [r7, #20]

  if (bCursorblink )
 80011f8:	68bb      	ldr	r3, [r7, #8]
 80011fa:	2b00      	cmp	r3, #0
 80011fc:	d003      	beq.n	8001206 <displayMode+0x28>
    cmd |= DIS_CUR_BLINK;
 80011fe:	697b      	ldr	r3, [r7, #20]
 8001200:	f043 0301 	orr.w	r3, r3, #1
 8001204:	617b      	str	r3, [r7, #20]

  if ( blcd )
 8001206:	687b      	ldr	r3, [r7, #4]
 8001208:	2b00      	cmp	r3, #0
 800120a:	d003      	beq.n	8001214 <displayMode+0x36>
    cmd |= DIS_LCD;
 800120c:	697b      	ldr	r3, [r7, #20]
 800120e:	f043 0304 	orr.w	r3, r3, #4
 8001212:	617b      	str	r3, [r7, #20]

  if (!writeCmd(cmd | DIS_DEF))
 8001214:	697b      	ldr	r3, [r7, #20]
 8001216:	f043 0308 	orr.w	r3, r3, #8
 800121a:	4618      	mov	r0, r3
 800121c:	f7ff ff6a 	bl	80010f4 <writeCmd>
 8001220:	4603      	mov	r3, r0
 8001222:	2b00      	cmp	r3, #0
 8001224:	d101      	bne.n	800122a <displayMode+0x4c>
    return FALSE;
 8001226:	2300      	movs	r3, #0
 8001228:	e000      	b.n	800122c <displayMode+0x4e>

  return TRUE;
 800122a:	2301      	movs	r3, #1
}
 800122c:	4618      	mov	r0, r3
 800122e:	3718      	adds	r7, #24
 8001230:	46bd      	mov	sp, r7
 8001232:	bd80      	pop	{r7, pc}

08001234 <writeCh>:

// 10)
int writeCh(int ch)
{
 8001234:	b580      	push	{r7, lr}
 8001236:	b082      	sub	sp, #8
 8001238:	af00      	add	r7, sp, #0
 800123a:	6078      	str	r0, [r7, #4]
  if ( IsBusy())
 800123c:	f7ff fede 	bl	8000ffc <IsBusy>
 8001240:	4603      	mov	r3, r0
 8001242:	2b00      	cmp	r3, #0
 8001244:	d001      	beq.n	800124a <writeCh+0x16>
    return FALSE;
 8001246:	2300      	movs	r3, #0
 8001248:	e027      	b.n	800129a <writeCh+0x66>

  dataportDirectionOut(TRUE); // dataport output
 800124a:	2001      	movs	r0, #1
 800124c:	f7ff feac 	bl	8000fa8 <dataportDirectionOut>

  writeDataPort(ch);
 8001250:	6878      	ldr	r0, [r7, #4]
 8001252:	f7ff ff1d 	bl	8001090 <writeDataPort>
  
  RS_HIGH
 8001256:	2201      	movs	r2, #1
 8001258:	f44f 7180 	mov.w	r1, #256	@ 0x100
 800125c:	4811      	ldr	r0, [pc, #68]	@ (80012a4 <writeCh+0x70>)
 800125e:	f000 fc7b 	bl	8001b58 <HAL_GPIO_WritePin>
 8001262:	2001      	movs	r0, #1
 8001264:	f000 f98e 	bl	8001584 <HAL_Delay>

  E_HIGH
 8001268:	2201      	movs	r2, #1
 800126a:	f44f 6180 	mov.w	r1, #1024	@ 0x400
 800126e:	480d      	ldr	r0, [pc, #52]	@ (80012a4 <writeCh+0x70>)
 8001270:	f000 fc72 	bl	8001b58 <HAL_GPIO_WritePin>
 8001274:	2001      	movs	r0, #1
 8001276:	f000 f985 	bl	8001584 <HAL_Delay>

  E_LOW
 800127a:	2200      	movs	r2, #0
 800127c:	f44f 6180 	mov.w	r1, #1024	@ 0x400
 8001280:	4808      	ldr	r0, [pc, #32]	@ (80012a4 <writeCh+0x70>)
 8001282:	f000 fc69 	bl	8001b58 <HAL_GPIO_WritePin>
 8001286:	2001      	movs	r0, #1
 8001288:	f000 f97c 	bl	8001584 <HAL_Delay>

  HAL_Delay(1);
 800128c:	2001      	movs	r0, #1
 800128e:	f000 f979 	bl	8001584 <HAL_Delay>
  dataportDirectionOut(FALSE); // dataport input
 8001292:	2000      	movs	r0, #0
 8001294:	f7ff fe88 	bl	8000fa8 <dataportDirectionOut>
  
  return TRUE;
 8001298:	2301      	movs	r3, #1
}
 800129a:	4618      	mov	r0, r3
 800129c:	3708      	adds	r7, #8
 800129e:	46bd      	mov	sp, r7
 80012a0:	bd80      	pop	{r7, pc}
 80012a2:	bf00      	nop
 80012a4:	40020c00 	.word	0x40020c00

080012a8 <functionSet>:
  return TRUE;
}

// 11)
int functionSet(void)
{
 80012a8:	b580      	push	{r7, lr}
 80012aa:	b082      	sub	sp, #8
 80012ac:	af00      	add	r7, sp, #0
  int cmd = 0x0038; // 5*8 dot charater , 8bit interface , 2 line
 80012ae:	2338      	movs	r3, #56	@ 0x38
 80012b0:	607b      	str	r3, [r7, #4]

  if (!writeCmd(cmd))
 80012b2:	6878      	ldr	r0, [r7, #4]
 80012b4:	f7ff ff1e 	bl	80010f4 <writeCmd>
 80012b8:	4603      	mov	r3, r0
 80012ba:	2b00      	cmp	r3, #0
 80012bc:	d101      	bne.n	80012c2 <functionSet+0x1a>
    return FALSE;
 80012be:	2300      	movs	r3, #0
 80012c0:	e000      	b.n	80012c4 <functionSet+0x1c>
  return TRUE;
 80012c2:	2301      	movs	r3, #1
}
 80012c4:	4618      	mov	r0, r3
 80012c6:	3708      	adds	r7, #8
 80012c8:	46bd      	mov	sp, r7
 80012ca:	bd80      	pop	{r7, pc}

080012cc <writeStr>:

// 12)
int writeStr(char* str)
{
 80012cc:	b580      	push	{r7, lr}
 80012ce:	b084      	sub	sp, #16
 80012d0:	af00      	add	r7, sp, #0
 80012d2:	6078      	str	r0, [r7, #4]
  int cdata;
  int i;
  for(i =0; i < strlen(str) ;i++ )
 80012d4:	2300      	movs	r3, #0
 80012d6:	60bb      	str	r3, [r7, #8]
 80012d8:	e013      	b.n	8001302 <writeStr+0x36>
  {
    if (str[i] == '_')
 80012da:	68bb      	ldr	r3, [r7, #8]
 80012dc:	687a      	ldr	r2, [r7, #4]
 80012de:	4413      	add	r3, r2
 80012e0:	781b      	ldrb	r3, [r3, #0]
 80012e2:	2b5f      	cmp	r3, #95	@ 0x5f
 80012e4:	d102      	bne.n	80012ec <writeStr+0x20>
      cdata = (int)' ';
 80012e6:	2320      	movs	r3, #32
 80012e8:	60fb      	str	r3, [r7, #12]
 80012ea:	e004      	b.n	80012f6 <writeStr+0x2a>
    else
      cdata = (int)str[i];
 80012ec:	68bb      	ldr	r3, [r7, #8]
 80012ee:	687a      	ldr	r2, [r7, #4]
 80012f0:	4413      	add	r3, r2
 80012f2:	781b      	ldrb	r3, [r3, #0]
 80012f4:	60fb      	str	r3, [r7, #12]
    writeCh(cdata);
 80012f6:	68f8      	ldr	r0, [r7, #12]
 80012f8:	f7ff ff9c 	bl	8001234 <writeCh>
  for(i =0; i < strlen(str) ;i++ )
 80012fc:	68bb      	ldr	r3, [r7, #8]
 80012fe:	3301      	adds	r3, #1
 8001300:	60bb      	str	r3, [r7, #8]
 8001302:	6878      	ldr	r0, [r7, #4]
 8001304:	f7fe ff64 	bl	80001d0 <strlen>
 8001308:	4602      	mov	r2, r0
 800130a:	68bb      	ldr	r3, [r7, #8]
 800130c:	429a      	cmp	r2, r3
 800130e:	d8e4      	bhi.n	80012da <writeStr+0xe>
  }
  return TRUE;
 8001310:	2301      	movs	r3, #1
}
 8001312:	4618      	mov	r0, r3
 8001314:	3710      	adds	r7, #16
 8001316:	46bd      	mov	sp, r7
 8001318:	bd80      	pop	{r7, pc}

0800131a <clearScreen>:

// 13)
// 0=> all line, 1= 1th line , 2 = 2th line
int clearScreen(int nline)
{
 800131a:	b580      	push	{r7, lr}
 800131c:	b084      	sub	sp, #16
 800131e:	af00      	add	r7, sp, #0
 8001320:	6078      	str	r0, [r7, #4]
  int i;
  if (nline == ALL_LINE)
 8001322:	687b      	ldr	r3, [r7, #4]
 8001324:	2b00      	cmp	r3, #0
 8001326:	d110      	bne.n	800134a <clearScreen+0x30>
  {
    if(IsBusy())                // Busy Flag Check
 8001328:	f7ff fe68 	bl	8000ffc <IsBusy>
 800132c:	4603      	mov	r3, r0
 800132e:	2b00      	cmp	r3, #0
 8001330:	d001      	beq.n	8001336 <clearScreen+0x1c>
      return FALSE;
 8001332:	2300      	movs	r3, #0
 8001334:	e039      	b.n	80013aa <clearScreen+0x90>

    if (!writeCmd(CLEAR_DISPLAY))       // clear display  
 8001336:	2001      	movs	r0, #1
 8001338:	f7ff fedc 	bl	80010f4 <writeCmd>
 800133c:	4603      	mov	r3, r0
 800133e:	2b00      	cmp	r3, #0
 8001340:	d101      	bne.n	8001346 <clearScreen+0x2c>
      return FALSE;
 8001342:	2300      	movs	r3, #0
 8001344:	e031      	b.n	80013aa <clearScreen+0x90>

    return TRUE;
 8001346:	2301      	movs	r3, #1
 8001348:	e02f      	b.n	80013aa <clearScreen+0x90>
  }
  else if (nline == LINE_1)
 800134a:	687b      	ldr	r3, [r7, #4]
 800134c:	2b01      	cmp	r3, #1
 800134e:	d114      	bne.n	800137a <clearScreen+0x60>
  {
    setDDRAMAddr(0,1);          // 0x80 - Set DDRAM Address
 8001350:	2101      	movs	r1, #1
 8001352:	2000      	movs	r0, #0
 8001354:	f7ff ff0e 	bl	8001174 <setDDRAMAddr>
    for(i = 0; i <= COLUMN_NUM ;i++ )
 8001358:	2300      	movs	r3, #0
 800135a:	60fb      	str	r3, [r7, #12]
 800135c:	e005      	b.n	800136a <clearScreen+0x50>
      writeCh((unsigned char)' ');
 800135e:	2020      	movs	r0, #32
 8001360:	f7ff ff68 	bl	8001234 <writeCh>
    for(i = 0; i <= COLUMN_NUM ;i++ )
 8001364:	68fb      	ldr	r3, [r7, #12]
 8001366:	3301      	adds	r3, #1
 8001368:	60fb      	str	r3, [r7, #12]
 800136a:	68fb      	ldr	r3, [r7, #12]
 800136c:	2b10      	cmp	r3, #16
 800136e:	ddf6      	ble.n	800135e <clearScreen+0x44>

    setDDRAMAddr(0,1);
 8001370:	2101      	movs	r1, #1
 8001372:	2000      	movs	r0, #0
 8001374:	f7ff fefe 	bl	8001174 <setDDRAMAddr>
 8001378:	e016      	b.n	80013a8 <clearScreen+0x8e>
  }
  else if (nline == LINE_2)
 800137a:	687b      	ldr	r3, [r7, #4]
 800137c:	2b02      	cmp	r3, #2
 800137e:	d113      	bne.n	80013a8 <clearScreen+0x8e>
  {
    setDDRAMAddr(0,2);          // 0xC0 - Move into 2nd Line
 8001380:	2102      	movs	r1, #2
 8001382:	2000      	movs	r0, #0
 8001384:	f7ff fef6 	bl	8001174 <setDDRAMAddr>

    for(i = 0; i <= COLUMN_NUM ;i++ )
 8001388:	2300      	movs	r3, #0
 800138a:	60fb      	str	r3, [r7, #12]
 800138c:	e005      	b.n	800139a <clearScreen+0x80>
      writeCh((unsigned char)' ');
 800138e:	2020      	movs	r0, #32
 8001390:	f7ff ff50 	bl	8001234 <writeCh>
    for(i = 0; i <= COLUMN_NUM ;i++ )
 8001394:	68fb      	ldr	r3, [r7, #12]
 8001396:	3301      	adds	r3, #1
 8001398:	60fb      	str	r3, [r7, #12]
 800139a:	68fb      	ldr	r3, [r7, #12]
 800139c:	2b10      	cmp	r3, #16
 800139e:	ddf6      	ble.n	800138e <clearScreen+0x74>

    setDDRAMAddr(0,2);
 80013a0:	2102      	movs	r1, #2
 80013a2:	2000      	movs	r0, #0
 80013a4:	f7ff fee6 	bl	8001174 <setDDRAMAddr>
  }
  return TRUE;
 80013a8:	2301      	movs	r3, #1
}
 80013aa:	4618      	mov	r0, r3
 80013ac:	3710      	adds	r7, #16
 80013ae:	46bd      	mov	sp, r7
 80013b0:	bd80      	pop	{r7, pc}
	...

080013b4 <initlcd>:

// 14)
int initlcd(void)
{
 80013b4:	b580      	push	{r7, lr}
 80013b6:	af00      	add	r7, sp, #0
  E_LOW
 80013b8:	2200      	movs	r2, #0
 80013ba:	f44f 6180 	mov.w	r1, #1024	@ 0x400
 80013be:	4809      	ldr	r0, [pc, #36]	@ (80013e4 <initlcd+0x30>)
 80013c0:	f000 fbca 	bl	8001b58 <HAL_GPIO_WritePin>
 80013c4:	2001      	movs	r0, #1
 80013c6:	f000 f8dd 	bl	8001584 <HAL_Delay>
  
  functionSet();
 80013ca:	f7ff ff6d 	bl	80012a8 <functionSet>
  HAL_Delay(1);
 80013ce:	2001      	movs	r0, #1
 80013d0:	f000 f8d8 	bl	8001584 <HAL_Delay>
  displayMode(1,1,1);
 80013d4:	2201      	movs	r2, #1
 80013d6:	2101      	movs	r1, #1
 80013d8:	2001      	movs	r0, #1
 80013da:	f7ff ff00 	bl	80011de <displayMode>

  return 1;
 80013de:	2301      	movs	r3, #1
}
 80013e0:	4618      	mov	r0, r3
 80013e2:	bd80      	pop	{r7, pc}
 80013e4:	40020c00 	.word	0x40020c00

080013e8 <TextlcdInit>:

// 15)
void TextlcdInit()
{
 80013e8:	b580      	push	{r7, lr}
 80013ea:	af00      	add	r7, sp, #0
  initlcd();
 80013ec:	f7ff ffe2 	bl	80013b4 <initlcd>
}
 80013f0:	bf00      	nop
 80013f2:	bd80      	pop	{r7, pc}

080013f4 <writeTextLine>:

// 16)
// line argument =>must be 1 or 2 . 
int writeTextLine(int line ,const char* str)
{
 80013f4:	b580      	push	{r7, lr}
 80013f6:	b088      	sub	sp, #32
 80013f8:	af00      	add	r7, sp, #0
 80013fa:	6078      	str	r0, [r7, #4]
 80013fc:	6039      	str	r1, [r7, #0]
  char strWtext[COLUMN_NUM+1];
  if (strlen(str) > COLUMN_NUM )
 80013fe:	6838      	ldr	r0, [r7, #0]
 8001400:	f7fe fee6 	bl	80001d0 <strlen>
 8001404:	4603      	mov	r3, r0
 8001406:	2b10      	cmp	r3, #16
 8001408:	d909      	bls.n	800141e <writeTextLine+0x2a>
  {
    strncpy(strWtext,str,COLUMN_NUM);
 800140a:	f107 030c 	add.w	r3, r7, #12
 800140e:	2210      	movs	r2, #16
 8001410:	6839      	ldr	r1, [r7, #0]
 8001412:	4618      	mov	r0, r3
 8001414:	f001 f816 	bl	8002444 <strncpy>
    strWtext[COLUMN_NUM] = '\0';
 8001418:	2300      	movs	r3, #0
 800141a:	773b      	strb	r3, [r7, #28]
 800141c:	e005      	b.n	800142a <writeTextLine+0x36>
  }
  else
  {
    strcpy(strWtext,str);
 800141e:	f107 030c 	add.w	r3, r7, #12
 8001422:	6839      	ldr	r1, [r7, #0]
 8001424:	4618      	mov	r0, r3
 8001426:	f001 f855 	bl	80024d4 <strcpy>
  }
  setDDRAMAddr(0, line);
 800142a:	6879      	ldr	r1, [r7, #4]
 800142c:	2000      	movs	r0, #0
 800142e:	f7ff fea1 	bl	8001174 <setDDRAMAddr>
  HAL_Delay(2);
 8001432:	2002      	movs	r0, #2
 8001434:	f000 f8a6 	bl	8001584 <HAL_Delay>
  writeStr(strWtext);
 8001438:	f107 030c 	add.w	r3, r7, #12
 800143c:	4618      	mov	r0, r3
 800143e:	f7ff ff45 	bl	80012cc <writeStr>

  return 1;
 8001442:	2301      	movs	r3, #1
}
 8001444:	4618      	mov	r0, r3
 8001446:	3720      	adds	r7, #32
 8001448:	46bd      	mov	sp, r7
 800144a:	bd80      	pop	{r7, pc}

0800144c <Reset_Handler>:

    .section  .text.Reset_Handler
  .weak  Reset_Handler
  .type  Reset_Handler, %function
Reset_Handler:  
  ldr   sp, =_estack     /* set stack pointer */
 800144c:	f8df d034 	ldr.w	sp, [pc, #52]	@ 8001484 <LoopFillZerobss+0xe>
  
/* Call the clock system initialization function.*/
  bl  SystemInit  
 8001450:	f7ff fd98 	bl	8000f84 <SystemInit>

/* Copy the data segment initializers from flash to SRAM */  
  ldr r0, =_sdata
 8001454:	480c      	ldr	r0, [pc, #48]	@ (8001488 <LoopFillZerobss+0x12>)
  ldr r1, =_edata
 8001456:	490d      	ldr	r1, [pc, #52]	@ (800148c <LoopFillZerobss+0x16>)
  ldr r2, =_sidata
 8001458:	4a0d      	ldr	r2, [pc, #52]	@ (8001490 <LoopFillZerobss+0x1a>)
  movs r3, #0
 800145a:	2300      	movs	r3, #0
  b LoopCopyDataInit
 800145c:	e002      	b.n	8001464 <LoopCopyDataInit>

0800145e <CopyDataInit>:

CopyDataInit:
  ldr r4, [r2, r3]
 800145e:	58d4      	ldr	r4, [r2, r3]
  str r4, [r0, r3]
 8001460:	50c4      	str	r4, [r0, r3]
  adds r3, r3, #4
 8001462:	3304      	adds	r3, #4

08001464 <LoopCopyDataInit>:

LoopCopyDataInit:
  adds r4, r0, r3
 8001464:	18c4      	adds	r4, r0, r3
  cmp r4, r1
 8001466:	428c      	cmp	r4, r1
  bcc CopyDataInit
 8001468:	d3f9      	bcc.n	800145e <CopyDataInit>
  
/* Zero fill the bss segment. */
  ldr r2, =_sbss
 800146a:	4a0a      	ldr	r2, [pc, #40]	@ (8001494 <LoopFillZerobss+0x1e>)
  ldr r4, =_ebss
 800146c:	4c0a      	ldr	r4, [pc, #40]	@ (8001498 <LoopFillZerobss+0x22>)
  movs r3, #0
 800146e:	2300      	movs	r3, #0
  b LoopFillZerobss
 8001470:	e001      	b.n	8001476 <LoopFillZerobss>

08001472 <FillZerobss>:

FillZerobss:
  str  r3, [r2]
 8001472:	6013      	str	r3, [r2, #0]
  adds r2, r2, #4
 8001474:	3204      	adds	r2, #4

08001476 <LoopFillZerobss>:

LoopFillZerobss:
  cmp r2, r4
 8001476:	42a2      	cmp	r2, r4
  bcc FillZerobss
 8001478:	d3fb      	bcc.n	8001472 <FillZerobss>

/* Call static constructors */
    bl __libc_init_array
 800147a:	f001 f805 	bl	8002488 <__libc_init_array>
/* Call the application's entry point.*/
  bl  main
 800147e:	f7ff fa55 	bl	800092c <main>
  bx  lr    
 8001482:	4770      	bx	lr
  ldr   sp, =_estack     /* set stack pointer */
 8001484:	20020000 	.word	0x20020000
  ldr r0, =_sdata
 8001488:	20000000 	.word	0x20000000
  ldr r1, =_edata
 800148c:	2000016c 	.word	0x2000016c
  ldr r2, =_sidata
 8001490:	08002e38 	.word	0x08002e38
  ldr r2, =_sbss
 8001494:	2000016c 	.word	0x2000016c
  ldr r4, =_ebss
 8001498:	200002dc 	.word	0x200002dc

0800149c <ADC_IRQHandler>:
 * @retval None       
*/
    .section  .text.Default_Handler,"ax",%progbits
Default_Handler:
Infinite_Loop:
  b  Infinite_Loop
 800149c:	e7fe      	b.n	800149c <ADC_IRQHandler>
	...

080014a0 <HAL_Init>:
  *         need to ensure that the SysTick time base is always set to 1 millisecond
  *         to have correct HAL operation.
  * @retval HAL status
  */
HAL_StatusTypeDef HAL_Init(void)
{
 80014a0:	b580      	push	{r7, lr}
 80014a2:	af00      	add	r7, sp, #0
  /* Configure Flash prefetch, Instruction cache, Data cache */ 
#if (INSTRUCTION_CACHE_ENABLE != 0U)
  __HAL_FLASH_INSTRUCTION_CACHE_ENABLE();
 80014a4:	4b0e      	ldr	r3, [pc, #56]	@ (80014e0 <HAL_Init+0x40>)
 80014a6:	681b      	ldr	r3, [r3, #0]
 80014a8:	4a0d      	ldr	r2, [pc, #52]	@ (80014e0 <HAL_Init+0x40>)
 80014aa:	f443 7300 	orr.w	r3, r3, #512	@ 0x200
 80014ae:	6013      	str	r3, [r2, #0]
#endif /* INSTRUCTION_CACHE_ENABLE */

#if (DATA_CACHE_ENABLE != 0U)
  __HAL_FLASH_DATA_CACHE_ENABLE();
 80014b0:	4b0b      	ldr	r3, [pc, #44]	@ (80014e0 <HAL_Init+0x40>)
 80014b2:	681b      	ldr	r3, [r3, #0]
 80014b4:	4a0a      	ldr	r2, [pc, #40]	@ (80014e0 <HAL_Init+0x40>)
 80014b6:	f443 6380 	orr.w	r3, r3, #1024	@ 0x400
 80014ba:	6013      	str	r3, [r2, #0]
#endif /* DATA_CACHE_ENABLE */

#if (PREFETCH_ENABLE != 0U)
  __HAL_FLASH_PREFETCH_BUFFER_ENABLE();
 80014bc:	4b08      	ldr	r3, [pc, #32]	@ (80014e0 <HAL_Init+0x40>)
 80014be:	681b      	ldr	r3, [r3, #0]
 80014c0:	4a07      	ldr	r2, [pc, #28]	@ (80014e0 <HAL_Init+0x40>)
 80014c2:	f443 7380 	orr.w	r3, r3, #256	@ 0x100
 80014c6:	6013      	str	r3, [r2, #0]
#endif /* PREFETCH_ENABLE */

  /* Set Interrupt Group Priority */
  HAL_NVIC_SetPriorityGrouping(NVIC_PRIORITYGROUP_4);
 80014c8:	2003      	movs	r0, #3
 80014ca:	f000 f94f 	bl	800176c <HAL_NVIC_SetPriorityGrouping>

  /* Use systick as time base source and configure 1ms tick (default clock after Reset is HSI) */
  HAL_InitTick(TICK_INT_PRIORITY);
 80014ce:	200f      	movs	r0, #15
 80014d0:	f000 f808 	bl	80014e4 <HAL_InitTick>

  /* Init the low level hardware */
  HAL_MspInit();
 80014d4:	f7ff fc74 	bl	8000dc0 <HAL_MspInit>

  /* Return function status */
  return HAL_OK;
 80014d8:	2300      	movs	r3, #0
}
 80014da:	4618      	mov	r0, r3
 80014dc:	bd80      	pop	{r7, pc}
 80014de:	bf00      	nop
 80014e0:	40023c00 	.word	0x40023c00

080014e4 <HAL_InitTick>:
  *       implementation  in user file.
  * @param TickPriority Tick interrupt priority.
  * @retval HAL status
  */
__weak HAL_StatusTypeDef HAL_InitTick(uint32_t TickPriority)
{
 80014e4:	b580      	push	{r7, lr}
 80014e6:	b082      	sub	sp, #8
 80014e8:	af00      	add	r7, sp, #0
 80014ea:	6078      	str	r0, [r7, #4]
  /* Configure the SysTick to have interrupt in 1ms time basis*/
  if (HAL_SYSTICK_Config(SystemCoreClock / (1000U / uwTickFreq)) > 0U)
 80014ec:	4b12      	ldr	r3, [pc, #72]	@ (8001538 <HAL_InitTick+0x54>)
 80014ee:	681a      	ldr	r2, [r3, #0]
 80014f0:	4b12      	ldr	r3, [pc, #72]	@ (800153c <HAL_InitTick+0x58>)
 80014f2:	781b      	ldrb	r3, [r3, #0]
 80014f4:	4619      	mov	r1, r3
 80014f6:	f44f 737a 	mov.w	r3, #1000	@ 0x3e8
 80014fa:	fbb3 f3f1 	udiv	r3, r3, r1
 80014fe:	fbb2 f3f3 	udiv	r3, r2, r3
 8001502:	4618      	mov	r0, r3
 8001504:	f000 f967 	bl	80017d6 <HAL_SYSTICK_Config>
 8001508:	4603      	mov	r3, r0
 800150a:	2b00      	cmp	r3, #0
 800150c:	d001      	beq.n	8001512 <HAL_InitTick+0x2e>
  {
    return HAL_ERROR;
 800150e:	2301      	movs	r3, #1
 8001510:	e00e      	b.n	8001530 <HAL_InitTick+0x4c>
  }

  /* Configure the SysTick IRQ priority */
  if (TickPriority < (1UL << __NVIC_PRIO_BITS))
 8001512:	687b      	ldr	r3, [r7, #4]
 8001514:	2b0f      	cmp	r3, #15
 8001516:	d80a      	bhi.n	800152e <HAL_InitTick+0x4a>
  {
    HAL_NVIC_SetPriority(SysTick_IRQn, TickPriority, 0U);
 8001518:	2200      	movs	r2, #0
 800151a:	6879      	ldr	r1, [r7, #4]
 800151c:	f04f 30ff 	mov.w	r0, #4294967295	@ 0xffffffff
 8001520:	f000 f92f 	bl	8001782 <HAL_NVIC_SetPriority>
    uwTickPrio = TickPriority;
 8001524:	4a06      	ldr	r2, [pc, #24]	@ (8001540 <HAL_InitTick+0x5c>)
 8001526:	687b      	ldr	r3, [r7, #4]
 8001528:	6013      	str	r3, [r2, #0]
  {
    return HAL_ERROR;
  }

  /* Return function status */
  return HAL_OK;
 800152a:	2300      	movs	r3, #0
 800152c:	e000      	b.n	8001530 <HAL_InitTick+0x4c>
    return HAL_ERROR;
 800152e:	2301      	movs	r3, #1
}
 8001530:	4618      	mov	r0, r3
 8001532:	3708      	adds	r7, #8
 8001534:	46bd      	mov	sp, r7
 8001536:	bd80      	pop	{r7, pc}
 8001538:	20000110 	.word	0x20000110
 800153c:	20000118 	.word	0x20000118
 8001540:	20000114 	.word	0x20000114

08001544 <HAL_IncTick>:
 * @note This function is declared as __weak to be overwritten in case of other 
  *      implementations in user file.
  * @retval None
  */
__weak void HAL_IncTick(void)
{
 8001544:	b480      	push	{r7}
 8001546:	af00      	add	r7, sp, #0
  uwTick += uwTickFreq;
 8001548:	4b06      	ldr	r3, [pc, #24]	@ (8001564 <HAL_IncTick+0x20>)
 800154a:	781b      	ldrb	r3, [r3, #0]
 800154c:	461a      	mov	r2, r3
 800154e:	4b06      	ldr	r3, [pc, #24]	@ (8001568 <HAL_IncTick+0x24>)
 8001550:	681b      	ldr	r3, [r3, #0]
 8001552:	4413      	add	r3, r2
 8001554:	4a04      	ldr	r2, [pc, #16]	@ (8001568 <HAL_IncTick+0x24>)
 8001556:	6013      	str	r3, [r2, #0]
}
 8001558:	bf00      	nop
 800155a:	46bd      	mov	sp, r7
 800155c:	f85d 7b04 	ldr.w	r7, [sp], #4
 8001560:	4770      	bx	lr
 8001562:	bf00      	nop
 8001564:	20000118 	.word	0x20000118
 8001568:	20000190 	.word	0x20000190

0800156c <HAL_GetTick>:
  * @note This function is declared as __weak to be overwritten in case of other 
  *       implementations in user file.
  * @retval tick value
  */
__weak uint32_t HAL_GetTick(void)
{
 800156c:	b480      	push	{r7}
 800156e:	af00      	add	r7, sp, #0
  return uwTick;
 8001570:	4b03      	ldr	r3, [pc, #12]	@ (8001580 <HAL_GetTick+0x14>)
 8001572:	681b      	ldr	r3, [r3, #0]
}
 8001574:	4618      	mov	r0, r3
 8001576:	46bd      	mov	sp, r7
 8001578:	f85d 7b04 	ldr.w	r7, [sp], #4
 800157c:	4770      	bx	lr
 800157e:	bf00      	nop
 8001580:	20000190 	.word	0x20000190

08001584 <HAL_Delay>:
  *       implementations in user file.
  * @param Delay specifies the delay time length, in milliseconds.
  * @retval None
  */
__weak void HAL_Delay(uint32_t Delay)
{
 8001584:	b580      	push	{r7, lr}
 8001586:	b084      	sub	sp, #16
 8001588:	af00      	add	r7, sp, #0
 800158a:	6078      	str	r0, [r7, #4]
  uint32_t tickstart = HAL_GetTick();
 800158c:	f7ff ffee 	bl	800156c <HAL_GetTick>
 8001590:	60b8      	str	r0, [r7, #8]
  uint32_t wait = Delay;
 8001592:	687b      	ldr	r3, [r7, #4]
 8001594:	60fb      	str	r3, [r7, #12]

  /* Add a freq to guarantee minimum wait */
  if (wait < HAL_MAX_DELAY)
 8001596:	68fb      	ldr	r3, [r7, #12]
 8001598:	f1b3 3fff 	cmp.w	r3, #4294967295	@ 0xffffffff
 800159c:	d005      	beq.n	80015aa <HAL_Delay+0x26>
  {
    wait += (uint32_t)(uwTickFreq);
 800159e:	4b0a      	ldr	r3, [pc, #40]	@ (80015c8 <HAL_Delay+0x44>)
 80015a0:	781b      	ldrb	r3, [r3, #0]
 80015a2:	461a      	mov	r2, r3
 80015a4:	68fb      	ldr	r3, [r7, #12]
 80015a6:	4413      	add	r3, r2
 80015a8:	60fb      	str	r3, [r7, #12]
  }

  while((HAL_GetTick() - tickstart) < wait)
 80015aa:	bf00      	nop
 80015ac:	f7ff ffde 	bl	800156c <HAL_GetTick>
 80015b0:	4602      	mov	r2, r0
 80015b2:	68bb      	ldr	r3, [r7, #8]
 80015b4:	1ad3      	subs	r3, r2, r3
 80015b6:	68fa      	ldr	r2, [r7, #12]
 80015b8:	429a      	cmp	r2, r3
 80015ba:	d8f7      	bhi.n	80015ac <HAL_Delay+0x28>
  {
  }
}
 80015bc:	bf00      	nop
 80015be:	bf00      	nop
 80015c0:	3710      	adds	r7, #16
 80015c2:	46bd      	mov	sp, r7
 80015c4:	bd80      	pop	{r7, pc}
 80015c6:	bf00      	nop
 80015c8:	20000118 	.word	0x20000118

080015cc <__NVIC_SetPriorityGrouping>:
           In case of a conflict between priority grouping and available
           priority bits (__NVIC_PRIO_BITS), the smallest possible priority group is set.
  \param [in]      PriorityGroup  Priority grouping field.
 */
__STATIC_INLINE void __NVIC_SetPriorityGrouping(uint32_t PriorityGroup)
{
 80015cc:	b480      	push	{r7}
 80015ce:	b085      	sub	sp, #20
 80015d0:	af00      	add	r7, sp, #0
 80015d2:	6078      	str	r0, [r7, #4]
  uint32_t reg_value;
  uint32_t PriorityGroupTmp = (PriorityGroup & (uint32_t)0x07UL);             /* only values 0..7 are used          */
 80015d4:	687b      	ldr	r3, [r7, #4]
 80015d6:	f003 0307 	and.w	r3, r3, #7
 80015da:	60fb      	str	r3, [r7, #12]

  reg_value  =  SCB->AIRCR;                                                   /* read old register configuration    */
 80015dc:	4b0c      	ldr	r3, [pc, #48]	@ (8001610 <__NVIC_SetPriorityGrouping+0x44>)
 80015de:	68db      	ldr	r3, [r3, #12]
 80015e0:	60bb      	str	r3, [r7, #8]
  reg_value &= ~((uint32_t)(SCB_AIRCR_VECTKEY_Msk | SCB_AIRCR_PRIGROUP_Msk)); /* clear bits to change               */
 80015e2:	68ba      	ldr	r2, [r7, #8]
 80015e4:	f64f 03ff 	movw	r3, #63743	@ 0xf8ff
 80015e8:	4013      	ands	r3, r2
 80015ea:	60bb      	str	r3, [r7, #8]
  reg_value  =  (reg_value                                   |
                ((uint32_t)0x5FAUL << SCB_AIRCR_VECTKEY_Pos) |
                (PriorityGroupTmp << SCB_AIRCR_PRIGROUP_Pos)  );              /* Insert write key and priority group */
 80015ec:	68fb      	ldr	r3, [r7, #12]
 80015ee:	021a      	lsls	r2, r3, #8
                ((uint32_t)0x5FAUL << SCB_AIRCR_VECTKEY_Pos) |
 80015f0:	68bb      	ldr	r3, [r7, #8]
 80015f2:	4313      	orrs	r3, r2
  reg_value  =  (reg_value                                   |
 80015f4:	f043 63bf 	orr.w	r3, r3, #100139008	@ 0x5f80000
 80015f8:	f443 3300 	orr.w	r3, r3, #131072	@ 0x20000
 80015fc:	60bb      	str	r3, [r7, #8]
  SCB->AIRCR =  reg_value;
 80015fe:	4a04      	ldr	r2, [pc, #16]	@ (8001610 <__NVIC_SetPriorityGrouping+0x44>)
 8001600:	68bb      	ldr	r3, [r7, #8]
 8001602:	60d3      	str	r3, [r2, #12]
}
 8001604:	bf00      	nop
 8001606:	3714      	adds	r7, #20
 8001608:	46bd      	mov	sp, r7
 800160a:	f85d 7b04 	ldr.w	r7, [sp], #4
 800160e:	4770      	bx	lr
 8001610:	e000ed00 	.word	0xe000ed00

08001614 <__NVIC_GetPriorityGrouping>:
  \brief   Get Priority Grouping
  \details Reads the priority grouping field from the NVIC Interrupt Controller.
  \return                Priority grouping field (SCB->AIRCR [10:8] PRIGROUP field).
 */
__STATIC_INLINE uint32_t __NVIC_GetPriorityGrouping(void)
{
 8001614:	b480      	push	{r7}
 8001616:	af00      	add	r7, sp, #0
  return ((uint32_t)((SCB->AIRCR & SCB_AIRCR_PRIGROUP_Msk) >> SCB_AIRCR_PRIGROUP_Pos));
 8001618:	4b04      	ldr	r3, [pc, #16]	@ (800162c <__NVIC_GetPriorityGrouping+0x18>)
 800161a:	68db      	ldr	r3, [r3, #12]
 800161c:	0a1b      	lsrs	r3, r3, #8
 800161e:	f003 0307 	and.w	r3, r3, #7
}
 8001622:	4618      	mov	r0, r3
 8001624:	46bd      	mov	sp, r7
 8001626:	f85d 7b04 	ldr.w	r7, [sp], #4
 800162a:	4770      	bx	lr
 800162c:	e000ed00 	.word	0xe000ed00

08001630 <__NVIC_EnableIRQ>:
  \details Enables a device specific interrupt in the NVIC interrupt controller.
  \param [in]      IRQn  Device specific interrupt number.
  \note    IRQn must not be negative.
 */
__STATIC_INLINE void __NVIC_EnableIRQ(IRQn_Type IRQn)
{
 8001630:	b480      	push	{r7}
 8001632:	b083      	sub	sp, #12
 8001634:	af00      	add	r7, sp, #0
 8001636:	4603      	mov	r3, r0
 8001638:	71fb      	strb	r3, [r7, #7]
  if ((int32_t)(IRQn) >= 0)
 800163a:	f997 3007 	ldrsb.w	r3, [r7, #7]
 800163e:	2b00      	cmp	r3, #0
 8001640:	db0b      	blt.n	800165a <__NVIC_EnableIRQ+0x2a>
  {
    __COMPILER_BARRIER();
    NVIC->ISER[(((uint32_t)IRQn) >> 5UL)] = (uint32_t)(1UL << (((uint32_t)IRQn) & 0x1FUL));
 8001642:	79fb      	ldrb	r3, [r7, #7]
 8001644:	f003 021f 	and.w	r2, r3, #31
 8001648:	4907      	ldr	r1, [pc, #28]	@ (8001668 <__NVIC_EnableIRQ+0x38>)
 800164a:	f997 3007 	ldrsb.w	r3, [r7, #7]
 800164e:	095b      	lsrs	r3, r3, #5
 8001650:	2001      	movs	r0, #1
 8001652:	fa00 f202 	lsl.w	r2, r0, r2
 8001656:	f841 2023 	str.w	r2, [r1, r3, lsl #2]
    __COMPILER_BARRIER();
  }
}
 800165a:	bf00      	nop
 800165c:	370c      	adds	r7, #12
 800165e:	46bd      	mov	sp, r7
 8001660:	f85d 7b04 	ldr.w	r7, [sp], #4
 8001664:	4770      	bx	lr
 8001666:	bf00      	nop
 8001668:	e000e100 	.word	0xe000e100

0800166c <__NVIC_SetPriority>:
  \param [in]      IRQn  Interrupt number.
  \param [in]  priority  Priority to set.
  \note    The priority cannot be set for every processor exception.
 */
__STATIC_INLINE void __NVIC_SetPriority(IRQn_Type IRQn, uint32_t priority)
{
 800166c:	b480      	push	{r7}
 800166e:	b083      	sub	sp, #12
 8001670:	af00      	add	r7, sp, #0
 8001672:	4603      	mov	r3, r0
 8001674:	6039      	str	r1, [r7, #0]
 8001676:	71fb      	strb	r3, [r7, #7]
  if ((int32_t)(IRQn) >= 0)
 8001678:	f997 3007 	ldrsb.w	r3, [r7, #7]
 800167c:	2b00      	cmp	r3, #0
 800167e:	db0a      	blt.n	8001696 <__NVIC_SetPriority+0x2a>
  {
    NVIC->IP[((uint32_t)IRQn)]               = (uint8_t)((priority << (8U - __NVIC_PRIO_BITS)) & (uint32_t)0xFFUL);
 8001680:	683b      	ldr	r3, [r7, #0]
 8001682:	b2da      	uxtb	r2, r3
 8001684:	490c      	ldr	r1, [pc, #48]	@ (80016b8 <__NVIC_SetPriority+0x4c>)
 8001686:	f997 3007 	ldrsb.w	r3, [r7, #7]
 800168a:	0112      	lsls	r2, r2, #4
 800168c:	b2d2      	uxtb	r2, r2
 800168e:	440b      	add	r3, r1
 8001690:	f883 2300 	strb.w	r2, [r3, #768]	@ 0x300
  }
  else
  {
    SCB->SHP[(((uint32_t)IRQn) & 0xFUL)-4UL] = (uint8_t)((priority << (8U - __NVIC_PRIO_BITS)) & (uint32_t)0xFFUL);
  }
}
 8001694:	e00a      	b.n	80016ac <__NVIC_SetPriority+0x40>
    SCB->SHP[(((uint32_t)IRQn) & 0xFUL)-4UL] = (uint8_t)((priority << (8U - __NVIC_PRIO_BITS)) & (uint32_t)0xFFUL);
 8001696:	683b      	ldr	r3, [r7, #0]
 8001698:	b2da      	uxtb	r2, r3
 800169a:	4908      	ldr	r1, [pc, #32]	@ (80016bc <__NVIC_SetPriority+0x50>)
 800169c:	79fb      	ldrb	r3, [r7, #7]
 800169e:	f003 030f 	and.w	r3, r3, #15
 80016a2:	3b04      	subs	r3, #4
 80016a4:	0112      	lsls	r2, r2, #4
 80016a6:	b2d2      	uxtb	r2, r2
 80016a8:	440b      	add	r3, r1
 80016aa:	761a      	strb	r2, [r3, #24]
}
 80016ac:	bf00      	nop
 80016ae:	370c      	adds	r7, #12
 80016b0:	46bd      	mov	sp, r7
 80016b2:	f85d 7b04 	ldr.w	r7, [sp], #4
 80016b6:	4770      	bx	lr
 80016b8:	e000e100 	.word	0xe000e100
 80016bc:	e000ed00 	.word	0xe000ed00

080016c0 <NVIC_EncodePriority>:
  \param [in]   PreemptPriority  Preemptive priority value (starting from 0).
  \param [in]       SubPriority  Subpriority value (starting from 0).
  \return                        Encoded priority. Value can be used in the function \ref NVIC_SetPriority().
 */
__STATIC_INLINE uint32_t NVIC_EncodePriority (uint32_t PriorityGroup, uint32_t PreemptPriority, uint32_t SubPriority)
{
 80016c0:	b480      	push	{r7}
 80016c2:	b089      	sub	sp, #36	@ 0x24
 80016c4:	af00      	add	r7, sp, #0
 80016c6:	60f8      	str	r0, [r7, #12]
 80016c8:	60b9      	str	r1, [r7, #8]
 80016ca:	607a      	str	r2, [r7, #4]
  uint32_t PriorityGroupTmp = (PriorityGroup & (uint32_t)0x07UL);   /* only values 0..7 are used          */
 80016cc:	68fb      	ldr	r3, [r7, #12]
 80016ce:	f003 0307 	and.w	r3, r3, #7
 80016d2:	61fb      	str	r3, [r7, #28]
  uint32_t PreemptPriorityBits;
  uint32_t SubPriorityBits;

  PreemptPriorityBits = ((7UL - PriorityGroupTmp) > (uint32_t)(__NVIC_PRIO_BITS)) ? (uint32_t)(__NVIC_PRIO_BITS) : (uint32_t)(7UL - PriorityGroupTmp);
 80016d4:	69fb      	ldr	r3, [r7, #28]
 80016d6:	f1c3 0307 	rsb	r3, r3, #7
 80016da:	2b04      	cmp	r3, #4
 80016dc:	bf28      	it	cs
 80016de:	2304      	movcs	r3, #4
 80016e0:	61bb      	str	r3, [r7, #24]
  SubPriorityBits     = ((PriorityGroupTmp + (uint32_t)(__NVIC_PRIO_BITS)) < (uint32_t)7UL) ? (uint32_t)0UL : (uint32_t)((PriorityGroupTmp - 7UL) + (uint32_t)(__NVIC_PRIO_BITS));
 80016e2:	69fb      	ldr	r3, [r7, #28]
 80016e4:	3304      	adds	r3, #4
 80016e6:	2b06      	cmp	r3, #6
 80016e8:	d902      	bls.n	80016f0 <NVIC_EncodePriority+0x30>
 80016ea:	69fb      	ldr	r3, [r7, #28]
 80016ec:	3b03      	subs	r3, #3
 80016ee:	e000      	b.n	80016f2 <NVIC_EncodePriority+0x32>
 80016f0:	2300      	movs	r3, #0
 80016f2:	617b      	str	r3, [r7, #20]

  return (
           ((PreemptPriority & (uint32_t)((1UL << (PreemptPriorityBits)) - 1UL)) << SubPriorityBits) |
 80016f4:	f04f 32ff 	mov.w	r2, #4294967295	@ 0xffffffff
 80016f8:	69bb      	ldr	r3, [r7, #24]
 80016fa:	fa02 f303 	lsl.w	r3, r2, r3
 80016fe:	43da      	mvns	r2, r3
 8001700:	68bb      	ldr	r3, [r7, #8]
 8001702:	401a      	ands	r2, r3
 8001704:	697b      	ldr	r3, [r7, #20]
 8001706:	409a      	lsls	r2, r3
           ((SubPriority     & (uint32_t)((1UL << (SubPriorityBits    )) - 1UL)))
 8001708:	f04f 31ff 	mov.w	r1, #4294967295	@ 0xffffffff
 800170c:	697b      	ldr	r3, [r7, #20]
 800170e:	fa01 f303 	lsl.w	r3, r1, r3
 8001712:	43d9      	mvns	r1, r3
 8001714:	687b      	ldr	r3, [r7, #4]
 8001716:	400b      	ands	r3, r1
           ((PreemptPriority & (uint32_t)((1UL << (PreemptPriorityBits)) - 1UL)) << SubPriorityBits) |
 8001718:	4313      	orrs	r3, r2
         );
}
 800171a:	4618      	mov	r0, r3
 800171c:	3724      	adds	r7, #36	@ 0x24
 800171e:	46bd      	mov	sp, r7
 8001720:	f85d 7b04 	ldr.w	r7, [sp], #4
 8001724:	4770      	bx	lr
	...

08001728 <SysTick_Config>:
  \note    When the variable <b>__Vendor_SysTickConfig</b> is set to 1, then the
           function <b>SysTick_Config</b> is not included. In this case, the file <b><i>device</i>.h</b>
           must contain a vendor-specific implementation of this function.
 */
__STATIC_INLINE uint32_t SysTick_Config(uint32_t ticks)
{
 8001728:	b580      	push	{r7, lr}
 800172a:	b082      	sub	sp, #8
 800172c:	af00      	add	r7, sp, #0
 800172e:	6078      	str	r0, [r7, #4]
  if ((ticks - 1UL) > SysTick_LOAD_RELOAD_Msk)
 8001730:	687b      	ldr	r3, [r7, #4]
 8001732:	3b01      	subs	r3, #1
 8001734:	f1b3 7f80 	cmp.w	r3, #16777216	@ 0x1000000
 8001738:	d301      	bcc.n	800173e <SysTick_Config+0x16>
  {
    return (1UL);                                                   /* Reload value impossible */
 800173a:	2301      	movs	r3, #1
 800173c:	e00f      	b.n	800175e <SysTick_Config+0x36>
  }

  SysTick->LOAD  = (uint32_t)(ticks - 1UL);                         /* set reload register */
 800173e:	4a0a      	ldr	r2, [pc, #40]	@ (8001768 <SysTick_Config+0x40>)
 8001740:	687b      	ldr	r3, [r7, #4]
 8001742:	3b01      	subs	r3, #1
 8001744:	6053      	str	r3, [r2, #4]
  NVIC_SetPriority (SysTick_IRQn, (1UL << __NVIC_PRIO_BITS) - 1UL); /* set Priority for Systick Interrupt */
 8001746:	210f      	movs	r1, #15
 8001748:	f04f 30ff 	mov.w	r0, #4294967295	@ 0xffffffff
 800174c:	f7ff ff8e 	bl	800166c <__NVIC_SetPriority>
  SysTick->VAL   = 0UL;                                             /* Load the SysTick Counter Value */
 8001750:	4b05      	ldr	r3, [pc, #20]	@ (8001768 <SysTick_Config+0x40>)
 8001752:	2200      	movs	r2, #0
 8001754:	609a      	str	r2, [r3, #8]
  SysTick->CTRL  = SysTick_CTRL_CLKSOURCE_Msk |
 8001756:	4b04      	ldr	r3, [pc, #16]	@ (8001768 <SysTick_Config+0x40>)
 8001758:	2207      	movs	r2, #7
 800175a:	601a      	str	r2, [r3, #0]
                   SysTick_CTRL_TICKINT_Msk   |
                   SysTick_CTRL_ENABLE_Msk;                         /* Enable SysTick IRQ and SysTick Timer */
  return (0UL);                                                     /* Function successful */
 800175c:	2300      	movs	r3, #0
}
 800175e:	4618      	mov	r0, r3
 8001760:	3708      	adds	r7, #8
 8001762:	46bd      	mov	sp, r7
 8001764:	bd80      	pop	{r7, pc}
 8001766:	bf00      	nop
 8001768:	e000e010 	.word	0xe000e010

0800176c <HAL_NVIC_SetPriorityGrouping>:
  * @note   When the NVIC_PriorityGroup_0 is selected, IRQ preemption is no more possible. 
  *         The pending IRQ priority will be managed only by the subpriority. 
  * @retval None
  */
void HAL_NVIC_SetPriorityGrouping(uint32_t PriorityGroup)
{
 800176c:	b580      	push	{r7, lr}
 800176e:	b082      	sub	sp, #8
 8001770:	af00      	add	r7, sp, #0
 8001772:	6078      	str	r0, [r7, #4]
  /* Check the parameters */
  assert_param(IS_NVIC_PRIORITY_GROUP(PriorityGroup));
  
  /* Set the PRIGROUP[10:8] bits according to the PriorityGroup parameter value */
  NVIC_SetPriorityGrouping(PriorityGroup);
 8001774:	6878      	ldr	r0, [r7, #4]
 8001776:	f7ff ff29 	bl	80015cc <__NVIC_SetPriorityGrouping>
}
 800177a:	bf00      	nop
 800177c:	3708      	adds	r7, #8
 800177e:	46bd      	mov	sp, r7
 8001780:	bd80      	pop	{r7, pc}

08001782 <HAL_NVIC_SetPriority>:
  *         This parameter can be a value between 0 and 15
  *         A lower priority value indicates a higher priority.          
  * @retval None
  */
void HAL_NVIC_SetPriority(IRQn_Type IRQn, uint32_t PreemptPriority, uint32_t SubPriority)
{ 
 8001782:	b580      	push	{r7, lr}
 8001784:	b086      	sub	sp, #24
 8001786:	af00      	add	r7, sp, #0
 8001788:	4603      	mov	r3, r0
 800178a:	60b9      	str	r1, [r7, #8]
 800178c:	607a      	str	r2, [r7, #4]
 800178e:	73fb      	strb	r3, [r7, #15]
  uint32_t prioritygroup = 0x00U;
 8001790:	2300      	movs	r3, #0
 8001792:	617b      	str	r3, [r7, #20]
  
  /* Check the parameters */
  assert_param(IS_NVIC_SUB_PRIORITY(SubPriority));
  assert_param(IS_NVIC_PREEMPTION_PRIORITY(PreemptPriority));
  
  prioritygroup = NVIC_GetPriorityGrouping();
 8001794:	f7ff ff3e 	bl	8001614 <__NVIC_GetPriorityGrouping>
 8001798:	6178      	str	r0, [r7, #20]
  
  NVIC_SetPriority(IRQn, NVIC_EncodePriority(prioritygroup, PreemptPriority, SubPriority));
 800179a:	687a      	ldr	r2, [r7, #4]
 800179c:	68b9      	ldr	r1, [r7, #8]
 800179e:	6978      	ldr	r0, [r7, #20]
 80017a0:	f7ff ff8e 	bl	80016c0 <NVIC_EncodePriority>
 80017a4:	4602      	mov	r2, r0
 80017a6:	f997 300f 	ldrsb.w	r3, [r7, #15]
 80017aa:	4611      	mov	r1, r2
 80017ac:	4618      	mov	r0, r3
 80017ae:	f7ff ff5d 	bl	800166c <__NVIC_SetPriority>
}
 80017b2:	bf00      	nop
 80017b4:	3718      	adds	r7, #24
 80017b6:	46bd      	mov	sp, r7
 80017b8:	bd80      	pop	{r7, pc}

080017ba <HAL_NVIC_EnableIRQ>:
  *         This parameter can be an enumerator of IRQn_Type enumeration
  *         (For the complete STM32 Devices IRQ Channels list, please refer to the appropriate CMSIS device file (stm32f4xxxx.h))
  * @retval None
  */
void HAL_NVIC_EnableIRQ(IRQn_Type IRQn)
{
 80017ba:	b580      	push	{r7, lr}
 80017bc:	b082      	sub	sp, #8
 80017be:	af00      	add	r7, sp, #0
 80017c0:	4603      	mov	r3, r0
 80017c2:	71fb      	strb	r3, [r7, #7]
  /* Check the parameters */
  assert_param(IS_NVIC_DEVICE_IRQ(IRQn));
  
  /* Enable interrupt */
  NVIC_EnableIRQ(IRQn);
 80017c4:	f997 3007 	ldrsb.w	r3, [r7, #7]
 80017c8:	4618      	mov	r0, r3
 80017ca:	f7ff ff31 	bl	8001630 <__NVIC_EnableIRQ>
}
 80017ce:	bf00      	nop
 80017d0:	3708      	adds	r7, #8
 80017d2:	46bd      	mov	sp, r7
 80017d4:	bd80      	pop	{r7, pc}

080017d6 <HAL_SYSTICK_Config>:
  * @param  TicksNumb Specifies the ticks Number of ticks between two interrupts.
  * @retval status:  - 0  Function succeeded.
  *                  - 1  Function failed.
  */
uint32_t HAL_SYSTICK_Config(uint32_t TicksNumb)
{
 80017d6:	b580      	push	{r7, lr}
 80017d8:	b082      	sub	sp, #8
 80017da:	af00      	add	r7, sp, #0
 80017dc:	6078      	str	r0, [r7, #4]
   return SysTick_Config(TicksNumb);
 80017de:	6878      	ldr	r0, [r7, #4]
 80017e0:	f7ff ffa2 	bl	8001728 <SysTick_Config>
 80017e4:	4603      	mov	r3, r0
}
 80017e6:	4618      	mov	r0, r3
 80017e8:	3708      	adds	r7, #8
 80017ea:	46bd      	mov	sp, r7
 80017ec:	bd80      	pop	{r7, pc}
	...

080017f0 <HAL_GPIO_Init>:
  * @param  GPIO_Init pointer to a GPIO_InitTypeDef structure that contains
  *         the configuration information for the specified GPIO peripheral.
  * @retval None
  */
void HAL_GPIO_Init(GPIO_TypeDef  *GPIOx, GPIO_InitTypeDef *GPIO_Init)
{
 80017f0:	b480      	push	{r7}
 80017f2:	b089      	sub	sp, #36	@ 0x24
 80017f4:	af00      	add	r7, sp, #0
 80017f6:	6078      	str	r0, [r7, #4]
 80017f8:	6039      	str	r1, [r7, #0]
  uint32_t position;
  uint32_t ioposition = 0x00U;
 80017fa:	2300      	movs	r3, #0
 80017fc:	617b      	str	r3, [r7, #20]
  uint32_t iocurrent = 0x00U;
 80017fe:	2300      	movs	r3, #0
 8001800:	613b      	str	r3, [r7, #16]
  uint32_t temp = 0x00U;
 8001802:	2300      	movs	r3, #0
 8001804:	61bb      	str	r3, [r7, #24]
  assert_param(IS_GPIO_ALL_INSTANCE(GPIOx));
  assert_param(IS_GPIO_PIN(GPIO_Init->Pin));
  assert_param(IS_GPIO_MODE(GPIO_Init->Mode));

  /* Configure the port pins */
  for(position = 0U; position < GPIO_NUMBER; position++)
 8001806:	2300      	movs	r3, #0
 8001808:	61fb      	str	r3, [r7, #28]
 800180a:	e16b      	b.n	8001ae4 <HAL_GPIO_Init+0x2f4>
  {
    /* Get the IO position */
    ioposition = 0x01U << position;
 800180c:	2201      	movs	r2, #1
 800180e:	69fb      	ldr	r3, [r7, #28]
 8001810:	fa02 f303 	lsl.w	r3, r2, r3
 8001814:	617b      	str	r3, [r7, #20]
    /* Get the current IO position */
    iocurrent = (uint32_t)(GPIO_Init->Pin) & ioposition;
 8001816:	683b      	ldr	r3, [r7, #0]
 8001818:	681b      	ldr	r3, [r3, #0]
 800181a:	697a      	ldr	r2, [r7, #20]
 800181c:	4013      	ands	r3, r2
 800181e:	613b      	str	r3, [r7, #16]

    if(iocurrent == ioposition)
 8001820:	693a      	ldr	r2, [r7, #16]
 8001822:	697b      	ldr	r3, [r7, #20]
 8001824:	429a      	cmp	r2, r3
 8001826:	f040 815a 	bne.w	8001ade <HAL_GPIO_Init+0x2ee>
    {
      /*--------------------- GPIO Mode Configuration ------------------------*/
      /* In case of Output or Alternate function mode selection */
      if(((GPIO_Init->Mode & GPIO_MODE) == MODE_OUTPUT) || \
 800182a:	683b      	ldr	r3, [r7, #0]
 800182c:	685b      	ldr	r3, [r3, #4]
 800182e:	f003 0303 	and.w	r3, r3, #3
 8001832:	2b01      	cmp	r3, #1
 8001834:	d005      	beq.n	8001842 <HAL_GPIO_Init+0x52>
          (GPIO_Init->Mode & GPIO_MODE) == MODE_AF)
 8001836:	683b      	ldr	r3, [r7, #0]
 8001838:	685b      	ldr	r3, [r3, #4]
 800183a:	f003 0303 	and.w	r3, r3, #3
      if(((GPIO_Init->Mode & GPIO_MODE) == MODE_OUTPUT) || \
 800183e:	2b02      	cmp	r3, #2
 8001840:	d130      	bne.n	80018a4 <HAL_GPIO_Init+0xb4>
      {
        /* Check the Speed parameter */
        assert_param(IS_GPIO_SPEED(GPIO_Init->Speed));
        /* Configure the IO Speed */
        temp = GPIOx->OSPEEDR; 
 8001842:	687b      	ldr	r3, [r7, #4]
 8001844:	689b      	ldr	r3, [r3, #8]
 8001846:	61bb      	str	r3, [r7, #24]
        temp &= ~(GPIO_OSPEEDER_OSPEEDR0 << (position * 2U));
 8001848:	69fb      	ldr	r3, [r7, #28]
 800184a:	005b      	lsls	r3, r3, #1
 800184c:	2203      	movs	r2, #3
 800184e:	fa02 f303 	lsl.w	r3, r2, r3
 8001852:	43db      	mvns	r3, r3
 8001854:	69ba      	ldr	r2, [r7, #24]
 8001856:	4013      	ands	r3, r2
 8001858:	61bb      	str	r3, [r7, #24]
        temp |= (GPIO_Init->Speed << (position * 2U));
 800185a:	683b      	ldr	r3, [r7, #0]
 800185c:	68da      	ldr	r2, [r3, #12]
 800185e:	69fb      	ldr	r3, [r7, #28]
 8001860:	005b      	lsls	r3, r3, #1
 8001862:	fa02 f303 	lsl.w	r3, r2, r3
 8001866:	69ba      	ldr	r2, [r7, #24]
 8001868:	4313      	orrs	r3, r2
 800186a:	61bb      	str	r3, [r7, #24]
        GPIOx->OSPEEDR = temp;
 800186c:	687b      	ldr	r3, [r7, #4]
 800186e:	69ba      	ldr	r2, [r7, #24]
 8001870:	609a      	str	r2, [r3, #8]

        /* Configure the IO Output Type */
        temp = GPIOx->OTYPER;
 8001872:	687b      	ldr	r3, [r7, #4]
 8001874:	685b      	ldr	r3, [r3, #4]
 8001876:	61bb      	str	r3, [r7, #24]
        temp &= ~(GPIO_OTYPER_OT_0 << position) ;
 8001878:	2201      	movs	r2, #1
 800187a:	69fb      	ldr	r3, [r7, #28]
 800187c:	fa02 f303 	lsl.w	r3, r2, r3
 8001880:	43db      	mvns	r3, r3
 8001882:	69ba      	ldr	r2, [r7, #24]
 8001884:	4013      	ands	r3, r2
 8001886:	61bb      	str	r3, [r7, #24]
        temp |= (((GPIO_Init->Mode & OUTPUT_TYPE) >> OUTPUT_TYPE_Pos) << position);
 8001888:	683b      	ldr	r3, [r7, #0]
 800188a:	685b      	ldr	r3, [r3, #4]
 800188c:	091b      	lsrs	r3, r3, #4
 800188e:	f003 0201 	and.w	r2, r3, #1
 8001892:	69fb      	ldr	r3, [r7, #28]
 8001894:	fa02 f303 	lsl.w	r3, r2, r3
 8001898:	69ba      	ldr	r2, [r7, #24]
 800189a:	4313      	orrs	r3, r2
 800189c:	61bb      	str	r3, [r7, #24]
        GPIOx->OTYPER = temp;
 800189e:	687b      	ldr	r3, [r7, #4]
 80018a0:	69ba      	ldr	r2, [r7, #24]
 80018a2:	605a      	str	r2, [r3, #4]
       }

      if((GPIO_Init->Mode & GPIO_MODE) != MODE_ANALOG)
 80018a4:	683b      	ldr	r3, [r7, #0]
 80018a6:	685b      	ldr	r3, [r3, #4]
 80018a8:	f003 0303 	and.w	r3, r3, #3
 80018ac:	2b03      	cmp	r3, #3
 80018ae:	d017      	beq.n	80018e0 <HAL_GPIO_Init+0xf0>
      {
        /* Check the parameters */
        assert_param(IS_GPIO_PULL(GPIO_Init->Pull));
        
        /* Activate the Pull-up or Pull down resistor for the current IO */
        temp = GPIOx->PUPDR;
 80018b0:	687b      	ldr	r3, [r7, #4]
 80018b2:	68db      	ldr	r3, [r3, #12]
 80018b4:	61bb      	str	r3, [r7, #24]
        temp &= ~(GPIO_PUPDR_PUPDR0 << (position * 2U));
 80018b6:	69fb      	ldr	r3, [r7, #28]
 80018b8:	005b      	lsls	r3, r3, #1
 80018ba:	2203      	movs	r2, #3
 80018bc:	fa02 f303 	lsl.w	r3, r2, r3
 80018c0:	43db      	mvns	r3, r3
 80018c2:	69ba      	ldr	r2, [r7, #24]
 80018c4:	4013      	ands	r3, r2
 80018c6:	61bb      	str	r3, [r7, #24]
        temp |= ((GPIO_Init->Pull) << (position * 2U));
 80018c8:	683b      	ldr	r3, [r7, #0]
 80018ca:	689a      	ldr	r2, [r3, #8]
 80018cc:	69fb      	ldr	r3, [r7, #28]
 80018ce:	005b      	lsls	r3, r3, #1
 80018d0:	fa02 f303 	lsl.w	r3, r2, r3
 80018d4:	69ba      	ldr	r2, [r7, #24]
 80018d6:	4313      	orrs	r3, r2
 80018d8:	61bb      	str	r3, [r7, #24]
        GPIOx->PUPDR = temp;
 80018da:	687b      	ldr	r3, [r7, #4]
 80018dc:	69ba      	ldr	r2, [r7, #24]
 80018de:	60da      	str	r2, [r3, #12]
      }

      /* In case of Alternate function mode selection */
      if((GPIO_Init->Mode & GPIO_MODE) == MODE_AF)
 80018e0:	683b      	ldr	r3, [r7, #0]
 80018e2:	685b      	ldr	r3, [r3, #4]
 80018e4:	f003 0303 	and.w	r3, r3, #3
 80018e8:	2b02      	cmp	r3, #2
 80018ea:	d123      	bne.n	8001934 <HAL_GPIO_Init+0x144>
      {
        /* Check the Alternate function parameter */
        assert_param(IS_GPIO_AF(GPIO_Init->Alternate));
        /* Configure Alternate function mapped with the current IO */
        temp = GPIOx->AFR[position >> 3U];
 80018ec:	69fb      	ldr	r3, [r7, #28]
 80018ee:	08da      	lsrs	r2, r3, #3
 80018f0:	687b      	ldr	r3, [r7, #4]
 80018f2:	3208      	adds	r2, #8
 80018f4:	f853 3022 	ldr.w	r3, [r3, r2, lsl #2]
 80018f8:	61bb      	str	r3, [r7, #24]
        temp &= ~(0xFU << ((uint32_t)(position & 0x07U) * 4U)) ;
 80018fa:	69fb      	ldr	r3, [r7, #28]
 80018fc:	f003 0307 	and.w	r3, r3, #7
 8001900:	009b      	lsls	r3, r3, #2
 8001902:	220f      	movs	r2, #15
 8001904:	fa02 f303 	lsl.w	r3, r2, r3
 8001908:	43db      	mvns	r3, r3
 800190a:	69ba      	ldr	r2, [r7, #24]
 800190c:	4013      	ands	r3, r2
 800190e:	61bb      	str	r3, [r7, #24]
        temp |= ((uint32_t)(GPIO_Init->Alternate) << (((uint32_t)position & 0x07U) * 4U));
 8001910:	683b      	ldr	r3, [r7, #0]
 8001912:	691a      	ldr	r2, [r3, #16]
 8001914:	69fb      	ldr	r3, [r7, #28]
 8001916:	f003 0307 	and.w	r3, r3, #7
 800191a:	009b      	lsls	r3, r3, #2
 800191c:	fa02 f303 	lsl.w	r3, r2, r3
 8001920:	69ba      	ldr	r2, [r7, #24]
 8001922:	4313      	orrs	r3, r2
 8001924:	61bb      	str	r3, [r7, #24]
        GPIOx->AFR[position >> 3U] = temp;
 8001926:	69fb      	ldr	r3, [r7, #28]
 8001928:	08da      	lsrs	r2, r3, #3
 800192a:	687b      	ldr	r3, [r7, #4]
 800192c:	3208      	adds	r2, #8
 800192e:	69b9      	ldr	r1, [r7, #24]
 8001930:	f843 1022 	str.w	r1, [r3, r2, lsl #2]
      }

      /* Configure IO Direction mode (Input, Output, Alternate or Analog) */
      temp = GPIOx->MODER;
 8001934:	687b      	ldr	r3, [r7, #4]
 8001936:	681b      	ldr	r3, [r3, #0]
 8001938:	61bb      	str	r3, [r7, #24]
      temp &= ~(GPIO_MODER_MODER0 << (position * 2U));
 800193a:	69fb      	ldr	r3, [r7, #28]
 800193c:	005b      	lsls	r3, r3, #1
 800193e:	2203      	movs	r2, #3
 8001940:	fa02 f303 	lsl.w	r3, r2, r3
 8001944:	43db      	mvns	r3, r3
 8001946:	69ba      	ldr	r2, [r7, #24]
 8001948:	4013      	ands	r3, r2
 800194a:	61bb      	str	r3, [r7, #24]
      temp |= ((GPIO_Init->Mode & GPIO_MODE) << (position * 2U));
 800194c:	683b      	ldr	r3, [r7, #0]
 800194e:	685b      	ldr	r3, [r3, #4]
 8001950:	f003 0203 	and.w	r2, r3, #3
 8001954:	69fb      	ldr	r3, [r7, #28]
 8001956:	005b      	lsls	r3, r3, #1
 8001958:	fa02 f303 	lsl.w	r3, r2, r3
 800195c:	69ba      	ldr	r2, [r7, #24]
 800195e:	4313      	orrs	r3, r2
 8001960:	61bb      	str	r3, [r7, #24]
      GPIOx->MODER = temp;
 8001962:	687b      	ldr	r3, [r7, #4]
 8001964:	69ba      	ldr	r2, [r7, #24]
 8001966:	601a      	str	r2, [r3, #0]

      /*--------------------- EXTI Mode Configuration ------------------------*/
      /* Configure the External Interrupt or event for the current IO */
      if((GPIO_Init->Mode & EXTI_MODE) != 0x00U)
 8001968:	683b      	ldr	r3, [r7, #0]
 800196a:	685b      	ldr	r3, [r3, #4]
 800196c:	f403 3340 	and.w	r3, r3, #196608	@ 0x30000
 8001970:	2b00      	cmp	r3, #0
 8001972:	f000 80b4 	beq.w	8001ade <HAL_GPIO_Init+0x2ee>
      {
        /* Enable SYSCFG Clock */
        __HAL_RCC_SYSCFG_CLK_ENABLE();
 8001976:	2300      	movs	r3, #0
 8001978:	60fb      	str	r3, [r7, #12]
 800197a:	4b60      	ldr	r3, [pc, #384]	@ (8001afc <HAL_GPIO_Init+0x30c>)
 800197c:	6c5b      	ldr	r3, [r3, #68]	@ 0x44
 800197e:	4a5f      	ldr	r2, [pc, #380]	@ (8001afc <HAL_GPIO_Init+0x30c>)
 8001980:	f443 4380 	orr.w	r3, r3, #16384	@ 0x4000
 8001984:	6453      	str	r3, [r2, #68]	@ 0x44
 8001986:	4b5d      	ldr	r3, [pc, #372]	@ (8001afc <HAL_GPIO_Init+0x30c>)
 8001988:	6c5b      	ldr	r3, [r3, #68]	@ 0x44
 800198a:	f403 4380 	and.w	r3, r3, #16384	@ 0x4000
 800198e:	60fb      	str	r3, [r7, #12]
 8001990:	68fb      	ldr	r3, [r7, #12]

        temp = SYSCFG->EXTICR[position >> 2U];
 8001992:	4a5b      	ldr	r2, [pc, #364]	@ (8001b00 <HAL_GPIO_Init+0x310>)
 8001994:	69fb      	ldr	r3, [r7, #28]
 8001996:	089b      	lsrs	r3, r3, #2
 8001998:	3302      	adds	r3, #2
 800199a:	f852 3023 	ldr.w	r3, [r2, r3, lsl #2]
 800199e:	61bb      	str	r3, [r7, #24]
        temp &= ~(0x0FU << (4U * (position & 0x03U)));
 80019a0:	69fb      	ldr	r3, [r7, #28]
 80019a2:	f003 0303 	and.w	r3, r3, #3
 80019a6:	009b      	lsls	r3, r3, #2
 80019a8:	220f      	movs	r2, #15
 80019aa:	fa02 f303 	lsl.w	r3, r2, r3
 80019ae:	43db      	mvns	r3, r3
 80019b0:	69ba      	ldr	r2, [r7, #24]
 80019b2:	4013      	ands	r3, r2
 80019b4:	61bb      	str	r3, [r7, #24]
        temp |= ((uint32_t)(GPIO_GET_INDEX(GPIOx)) << (4U * (position & 0x03U)));
 80019b6:	687b      	ldr	r3, [r7, #4]
 80019b8:	4a52      	ldr	r2, [pc, #328]	@ (8001b04 <HAL_GPIO_Init+0x314>)
 80019ba:	4293      	cmp	r3, r2
 80019bc:	d02b      	beq.n	8001a16 <HAL_GPIO_Init+0x226>
 80019be:	687b      	ldr	r3, [r7, #4]
 80019c0:	4a51      	ldr	r2, [pc, #324]	@ (8001b08 <HAL_GPIO_Init+0x318>)
 80019c2:	4293      	cmp	r3, r2
 80019c4:	d025      	beq.n	8001a12 <HAL_GPIO_Init+0x222>
 80019c6:	687b      	ldr	r3, [r7, #4]
 80019c8:	4a50      	ldr	r2, [pc, #320]	@ (8001b0c <HAL_GPIO_Init+0x31c>)
 80019ca:	4293      	cmp	r3, r2
 80019cc:	d01f      	beq.n	8001a0e <HAL_GPIO_Init+0x21e>
 80019ce:	687b      	ldr	r3, [r7, #4]
 80019d0:	4a4f      	ldr	r2, [pc, #316]	@ (8001b10 <HAL_GPIO_Init+0x320>)
 80019d2:	4293      	cmp	r3, r2
 80019d4:	d019      	beq.n	8001a0a <HAL_GPIO_Init+0x21a>
 80019d6:	687b      	ldr	r3, [r7, #4]
 80019d8:	4a4e      	ldr	r2, [pc, #312]	@ (8001b14 <HAL_GPIO_Init+0x324>)
 80019da:	4293      	cmp	r3, r2
 80019dc:	d013      	beq.n	8001a06 <HAL_GPIO_Init+0x216>
 80019de:	687b      	ldr	r3, [r7, #4]
 80019e0:	4a4d      	ldr	r2, [pc, #308]	@ (8001b18 <HAL_GPIO_Init+0x328>)
 80019e2:	4293      	cmp	r3, r2
 80019e4:	d00d      	beq.n	8001a02 <HAL_GPIO_Init+0x212>
 80019e6:	687b      	ldr	r3, [r7, #4]
 80019e8:	4a4c      	ldr	r2, [pc, #304]	@ (8001b1c <HAL_GPIO_Init+0x32c>)
 80019ea:	4293      	cmp	r3, r2
 80019ec:	d007      	beq.n	80019fe <HAL_GPIO_Init+0x20e>
 80019ee:	687b      	ldr	r3, [r7, #4]
 80019f0:	4a4b      	ldr	r2, [pc, #300]	@ (8001b20 <HAL_GPIO_Init+0x330>)
 80019f2:	4293      	cmp	r3, r2
 80019f4:	d101      	bne.n	80019fa <HAL_GPIO_Init+0x20a>
 80019f6:	2307      	movs	r3, #7
 80019f8:	e00e      	b.n	8001a18 <HAL_GPIO_Init+0x228>
 80019fa:	2308      	movs	r3, #8
 80019fc:	e00c      	b.n	8001a18 <HAL_GPIO_Init+0x228>
 80019fe:	2306      	movs	r3, #6
 8001a00:	e00a      	b.n	8001a18 <HAL_GPIO_Init+0x228>
 8001a02:	2305      	movs	r3, #5
 8001a04:	e008      	b.n	8001a18 <HAL_GPIO_Init+0x228>
 8001a06:	2304      	movs	r3, #4
 8001a08:	e006      	b.n	8001a18 <HAL_GPIO_Init+0x228>
 8001a0a:	2303      	movs	r3, #3
 8001a0c:	e004      	b.n	8001a18 <HAL_GPIO_Init+0x228>
 8001a0e:	2302      	movs	r3, #2
 8001a10:	e002      	b.n	8001a18 <HAL_GPIO_Init+0x228>
 8001a12:	2301      	movs	r3, #1
 8001a14:	e000      	b.n	8001a18 <HAL_GPIO_Init+0x228>
 8001a16:	2300      	movs	r3, #0
 8001a18:	69fa      	ldr	r2, [r7, #28]
 8001a1a:	f002 0203 	and.w	r2, r2, #3
 8001a1e:	0092      	lsls	r2, r2, #2
 8001a20:	4093      	lsls	r3, r2
 8001a22:	69ba      	ldr	r2, [r7, #24]
 8001a24:	4313      	orrs	r3, r2
 8001a26:	61bb      	str	r3, [r7, #24]
        SYSCFG->EXTICR[position >> 2U] = temp;
 8001a28:	4935      	ldr	r1, [pc, #212]	@ (8001b00 <HAL_GPIO_Init+0x310>)
 8001a2a:	69fb      	ldr	r3, [r7, #28]
 8001a2c:	089b      	lsrs	r3, r3, #2
 8001a2e:	3302      	adds	r3, #2
 8001a30:	69ba      	ldr	r2, [r7, #24]
 8001a32:	f841 2023 	str.w	r2, [r1, r3, lsl #2]

        /* Clear Rising Falling edge configuration */
        temp = EXTI->RTSR;
 8001a36:	4b3b      	ldr	r3, [pc, #236]	@ (8001b24 <HAL_GPIO_Init+0x334>)
 8001a38:	689b      	ldr	r3, [r3, #8]
 8001a3a:	61bb      	str	r3, [r7, #24]
        temp &= ~((uint32_t)iocurrent);
 8001a3c:	693b      	ldr	r3, [r7, #16]
 8001a3e:	43db      	mvns	r3, r3
 8001a40:	69ba      	ldr	r2, [r7, #24]
 8001a42:	4013      	ands	r3, r2
 8001a44:	61bb      	str	r3, [r7, #24]
        if((GPIO_Init->Mode & TRIGGER_RISING) != 0x00U)
 8001a46:	683b      	ldr	r3, [r7, #0]
 8001a48:	685b      	ldr	r3, [r3, #4]
 8001a4a:	f403 1380 	and.w	r3, r3, #1048576	@ 0x100000
 8001a4e:	2b00      	cmp	r3, #0
 8001a50:	d003      	beq.n	8001a5a <HAL_GPIO_Init+0x26a>
        {
          temp |= iocurrent;
 8001a52:	69ba      	ldr	r2, [r7, #24]
 8001a54:	693b      	ldr	r3, [r7, #16]
 8001a56:	4313      	orrs	r3, r2
 8001a58:	61bb      	str	r3, [r7, #24]
        }
        EXTI->RTSR = temp;
 8001a5a:	4a32      	ldr	r2, [pc, #200]	@ (8001b24 <HAL_GPIO_Init+0x334>)
 8001a5c:	69bb      	ldr	r3, [r7, #24]
 8001a5e:	6093      	str	r3, [r2, #8]

        temp = EXTI->FTSR;
 8001a60:	4b30      	ldr	r3, [pc, #192]	@ (8001b24 <HAL_GPIO_Init+0x334>)
 8001a62:	68db      	ldr	r3, [r3, #12]
 8001a64:	61bb      	str	r3, [r7, #24]
        temp &= ~((uint32_t)iocurrent);
 8001a66:	693b      	ldr	r3, [r7, #16]
 8001a68:	43db      	mvns	r3, r3
 8001a6a:	69ba      	ldr	r2, [r7, #24]
 8001a6c:	4013      	ands	r3, r2
 8001a6e:	61bb      	str	r3, [r7, #24]
        if((GPIO_Init->Mode & TRIGGER_FALLING) != 0x00U)
 8001a70:	683b      	ldr	r3, [r7, #0]
 8001a72:	685b      	ldr	r3, [r3, #4]
 8001a74:	f403 1300 	and.w	r3, r3, #2097152	@ 0x200000
 8001a78:	2b00      	cmp	r3, #0
 8001a7a:	d003      	beq.n	8001a84 <HAL_GPIO_Init+0x294>
        {
          temp |= iocurrent;
 8001a7c:	69ba      	ldr	r2, [r7, #24]
 8001a7e:	693b      	ldr	r3, [r7, #16]
 8001a80:	4313      	orrs	r3, r2
 8001a82:	61bb      	str	r3, [r7, #24]
        }
        EXTI->FTSR = temp;
 8001a84:	4a27      	ldr	r2, [pc, #156]	@ (8001b24 <HAL_GPIO_Init+0x334>)
 8001a86:	69bb      	ldr	r3, [r7, #24]
 8001a88:	60d3      	str	r3, [r2, #12]

        temp = EXTI->EMR;
 8001a8a:	4b26      	ldr	r3, [pc, #152]	@ (8001b24 <HAL_GPIO_Init+0x334>)
 8001a8c:	685b      	ldr	r3, [r3, #4]
 8001a8e:	61bb      	str	r3, [r7, #24]
        temp &= ~((uint32_t)iocurrent);
 8001a90:	693b      	ldr	r3, [r7, #16]
 8001a92:	43db      	mvns	r3, r3
 8001a94:	69ba      	ldr	r2, [r7, #24]
 8001a96:	4013      	ands	r3, r2
 8001a98:	61bb      	str	r3, [r7, #24]
        if((GPIO_Init->Mode & EXTI_EVT) != 0x00U)
 8001a9a:	683b      	ldr	r3, [r7, #0]
 8001a9c:	685b      	ldr	r3, [r3, #4]
 8001a9e:	f403 3300 	and.w	r3, r3, #131072	@ 0x20000
 8001aa2:	2b00      	cmp	r3, #0
 8001aa4:	d003      	beq.n	8001aae <HAL_GPIO_Init+0x2be>
        {
          temp |= iocurrent;
 8001aa6:	69ba      	ldr	r2, [r7, #24]
 8001aa8:	693b      	ldr	r3, [r7, #16]
 8001aaa:	4313      	orrs	r3, r2
 8001aac:	61bb      	str	r3, [r7, #24]
        }
        EXTI->EMR = temp;
 8001aae:	4a1d      	ldr	r2, [pc, #116]	@ (8001b24 <HAL_GPIO_Init+0x334>)
 8001ab0:	69bb      	ldr	r3, [r7, #24]
 8001ab2:	6053      	str	r3, [r2, #4]

        /* Clear EXTI line configuration */
        temp = EXTI->IMR;
 8001ab4:	4b1b      	ldr	r3, [pc, #108]	@ (8001b24 <HAL_GPIO_Init+0x334>)
 8001ab6:	681b      	ldr	r3, [r3, #0]
 8001ab8:	61bb      	str	r3, [r7, #24]
        temp &= ~((uint32_t)iocurrent);
 8001aba:	693b      	ldr	r3, [r7, #16]
 8001abc:	43db      	mvns	r3, r3
 8001abe:	69ba      	ldr	r2, [r7, #24]
 8001ac0:	4013      	ands	r3, r2
 8001ac2:	61bb      	str	r3, [r7, #24]
        if((GPIO_Init->Mode & EXTI_IT) != 0x00U)
 8001ac4:	683b      	ldr	r3, [r7, #0]
 8001ac6:	685b      	ldr	r3, [r3, #4]
 8001ac8:	f403 3380 	and.w	r3, r3, #65536	@ 0x10000
 8001acc:	2b00      	cmp	r3, #0
 8001ace:	d003      	beq.n	8001ad8 <HAL_GPIO_Init+0x2e8>
        {
          temp |= iocurrent;
 8001ad0:	69ba      	ldr	r2, [r7, #24]
 8001ad2:	693b      	ldr	r3, [r7, #16]
 8001ad4:	4313      	orrs	r3, r2
 8001ad6:	61bb      	str	r3, [r7, #24]
        }
        EXTI->IMR = temp;
 8001ad8:	4a12      	ldr	r2, [pc, #72]	@ (8001b24 <HAL_GPIO_Init+0x334>)
 8001ada:	69bb      	ldr	r3, [r7, #24]
 8001adc:	6013      	str	r3, [r2, #0]
  for(position = 0U; position < GPIO_NUMBER; position++)
 8001ade:	69fb      	ldr	r3, [r7, #28]
 8001ae0:	3301      	adds	r3, #1
 8001ae2:	61fb      	str	r3, [r7, #28]
 8001ae4:	69fb      	ldr	r3, [r7, #28]
 8001ae6:	2b0f      	cmp	r3, #15
 8001ae8:	f67f ae90 	bls.w	800180c <HAL_GPIO_Init+0x1c>
      }
    }
  }
}
 8001aec:	bf00      	nop
 8001aee:	bf00      	nop
 8001af0:	3724      	adds	r7, #36	@ 0x24
 8001af2:	46bd      	mov	sp, r7
 8001af4:	f85d 7b04 	ldr.w	r7, [sp], #4
 8001af8:	4770      	bx	lr
 8001afa:	bf00      	nop
 8001afc:	40023800 	.word	0x40023800
 8001b00:	40013800 	.word	0x40013800
 8001b04:	40020000 	.word	0x40020000
 8001b08:	40020400 	.word	0x40020400
 8001b0c:	40020800 	.word	0x40020800
 8001b10:	40020c00 	.word	0x40020c00
 8001b14:	40021000 	.word	0x40021000
 8001b18:	40021400 	.word	0x40021400
 8001b1c:	40021800 	.word	0x40021800
 8001b20:	40021c00 	.word	0x40021c00
 8001b24:	40013c00 	.word	0x40013c00

08001b28 <HAL_GPIO_ReadPin>:
  * @param  GPIO_Pin specifies the port bit to read.
  *         This parameter can be GPIO_PIN_x where x can be (0..15).
  * @retval The input port pin value.
  */
GPIO_PinState HAL_GPIO_ReadPin(GPIO_TypeDef* GPIOx, uint16_t GPIO_Pin)
{
 8001b28:	b480      	push	{r7}
 8001b2a:	b085      	sub	sp, #20
 8001b2c:	af00      	add	r7, sp, #0
 8001b2e:	6078      	str	r0, [r7, #4]
 8001b30:	460b      	mov	r3, r1
 8001b32:	807b      	strh	r3, [r7, #2]
  GPIO_PinState bitstatus;

  /* Check the parameters */
  assert_param(IS_GPIO_PIN(GPIO_Pin));

  if((GPIOx->IDR & GPIO_Pin) != (uint32_t)GPIO_PIN_RESET)
 8001b34:	687b      	ldr	r3, [r7, #4]
 8001b36:	691a      	ldr	r2, [r3, #16]
 8001b38:	887b      	ldrh	r3, [r7, #2]
 8001b3a:	4013      	ands	r3, r2
 8001b3c:	2b00      	cmp	r3, #0
 8001b3e:	d002      	beq.n	8001b46 <HAL_GPIO_ReadPin+0x1e>
  {
    bitstatus = GPIO_PIN_SET;
 8001b40:	2301      	movs	r3, #1
 8001b42:	73fb      	strb	r3, [r7, #15]
 8001b44:	e001      	b.n	8001b4a <HAL_GPIO_ReadPin+0x22>
  }
  else
  {
    bitstatus = GPIO_PIN_RESET;
 8001b46:	2300      	movs	r3, #0
 8001b48:	73fb      	strb	r3, [r7, #15]
  }
  return bitstatus;
 8001b4a:	7bfb      	ldrb	r3, [r7, #15]
}
 8001b4c:	4618      	mov	r0, r3
 8001b4e:	3714      	adds	r7, #20
 8001b50:	46bd      	mov	sp, r7
 8001b52:	f85d 7b04 	ldr.w	r7, [sp], #4
 8001b56:	4770      	bx	lr

08001b58 <HAL_GPIO_WritePin>:
  *            @arg GPIO_PIN_RESET: to clear the port pin
  *            @arg GPIO_PIN_SET: to set the port pin
  * @retval None
  */
void HAL_GPIO_WritePin(GPIO_TypeDef* GPIOx, uint16_t GPIO_Pin, GPIO_PinState PinState)
{
 8001b58:	b480      	push	{r7}
 8001b5a:	b083      	sub	sp, #12
 8001b5c:	af00      	add	r7, sp, #0
 8001b5e:	6078      	str	r0, [r7, #4]
 8001b60:	460b      	mov	r3, r1
 8001b62:	807b      	strh	r3, [r7, #2]
 8001b64:	4613      	mov	r3, r2
 8001b66:	707b      	strb	r3, [r7, #1]
  /* Check the parameters */
  assert_param(IS_GPIO_PIN(GPIO_Pin));
  assert_param(IS_GPIO_PIN_ACTION(PinState));

  if(PinState != GPIO_PIN_RESET)
 8001b68:	787b      	ldrb	r3, [r7, #1]
 8001b6a:	2b00      	cmp	r3, #0
 8001b6c:	d003      	beq.n	8001b76 <HAL_GPIO_WritePin+0x1e>
  {
    GPIOx->BSRR = GPIO_Pin;
 8001b6e:	887a      	ldrh	r2, [r7, #2]
 8001b70:	687b      	ldr	r3, [r7, #4]
 8001b72:	619a      	str	r2, [r3, #24]
  }
  else
  {
    GPIOx->BSRR = (uint32_t)GPIO_Pin << 16U;
  }
}
 8001b74:	e003      	b.n	8001b7e <HAL_GPIO_WritePin+0x26>
    GPIOx->BSRR = (uint32_t)GPIO_Pin << 16U;
 8001b76:	887b      	ldrh	r3, [r7, #2]
 8001b78:	041a      	lsls	r2, r3, #16
 8001b7a:	687b      	ldr	r3, [r7, #4]
 8001b7c:	619a      	str	r2, [r3, #24]
}
 8001b7e:	bf00      	nop
 8001b80:	370c      	adds	r7, #12
 8001b82:	46bd      	mov	sp, r7
 8001b84:	f85d 7b04 	ldr.w	r7, [sp], #4
 8001b88:	4770      	bx	lr
	...

08001b8c <HAL_GPIO_EXTI_IRQHandler>:
  * @brief  This function handles EXTI interrupt request.
  * @param  GPIO_Pin Specifies the pins connected EXTI line
  * @retval None
  */
void HAL_GPIO_EXTI_IRQHandler(uint16_t GPIO_Pin)
{
 8001b8c:	b580      	push	{r7, lr}
 8001b8e:	b082      	sub	sp, #8
 8001b90:	af00      	add	r7, sp, #0
 8001b92:	4603      	mov	r3, r0
 8001b94:	80fb      	strh	r3, [r7, #6]
  /* EXTI line interrupt detected */
  if(__HAL_GPIO_EXTI_GET_IT(GPIO_Pin) != RESET)
 8001b96:	4b08      	ldr	r3, [pc, #32]	@ (8001bb8 <HAL_GPIO_EXTI_IRQHandler+0x2c>)
 8001b98:	695a      	ldr	r2, [r3, #20]
 8001b9a:	88fb      	ldrh	r3, [r7, #6]
 8001b9c:	4013      	ands	r3, r2
 8001b9e:	2b00      	cmp	r3, #0
 8001ba0:	d006      	beq.n	8001bb0 <HAL_GPIO_EXTI_IRQHandler+0x24>
  {
    __HAL_GPIO_EXTI_CLEAR_IT(GPIO_Pin);
 8001ba2:	4a05      	ldr	r2, [pc, #20]	@ (8001bb8 <HAL_GPIO_EXTI_IRQHandler+0x2c>)
 8001ba4:	88fb      	ldrh	r3, [r7, #6]
 8001ba6:	6153      	str	r3, [r2, #20]
    HAL_GPIO_EXTI_Callback(GPIO_Pin);
 8001ba8:	88fb      	ldrh	r3, [r7, #6]
 8001baa:	4618      	mov	r0, r3
 8001bac:	f7ff f8dc 	bl	8000d68 <HAL_GPIO_EXTI_Callback>
  }
}
 8001bb0:	bf00      	nop
 8001bb2:	3708      	adds	r7, #8
 8001bb4:	46bd      	mov	sp, r7
 8001bb6:	bd80      	pop	{r7, pc}
 8001bb8:	40013c00 	.word	0x40013c00

08001bbc <HAL_RCC_OscConfig>:
  *         supported by this API. User should request a transition to HSE Off
  *         first and then HSE On or HSE Bypass.
  * @retval HAL status
  */
__weak HAL_StatusTypeDef HAL_RCC_OscConfig(RCC_OscInitTypeDef  *RCC_OscInitStruct)
{
 8001bbc:	b580      	push	{r7, lr}
 8001bbe:	b086      	sub	sp, #24
 8001bc0:	af00      	add	r7, sp, #0
 8001bc2:	6078      	str	r0, [r7, #4]
  uint32_t tickstart;
  uint32_t pll_config;
  /* Check Null pointer */
  if (RCC_OscInitStruct == NULL)
 8001bc4:	687b      	ldr	r3, [r7, #4]
 8001bc6:	2b00      	cmp	r3, #0
 8001bc8:	d101      	bne.n	8001bce <HAL_RCC_OscConfig+0x12>
  {
    return HAL_ERROR;
 8001bca:	2301      	movs	r3, #1
 8001bcc:	e267      	b.n	800209e <HAL_RCC_OscConfig+0x4e2>
  }

  /* Check the parameters */
  assert_param(IS_RCC_OSCILLATORTYPE(RCC_OscInitStruct->OscillatorType));
  /*------------------------------- HSE Configuration ------------------------*/
  if (((RCC_OscInitStruct->OscillatorType) & RCC_OSCILLATORTYPE_HSE) == RCC_OSCILLATORTYPE_HSE)
 8001bce:	687b      	ldr	r3, [r7, #4]
 8001bd0:	681b      	ldr	r3, [r3, #0]
 8001bd2:	f003 0301 	and.w	r3, r3, #1
 8001bd6:	2b00      	cmp	r3, #0
 8001bd8:	d075      	beq.n	8001cc6 <HAL_RCC_OscConfig+0x10a>
  {
    /* Check the parameters */
    assert_param(IS_RCC_HSE(RCC_OscInitStruct->HSEState));
    /* When the HSE is used as system clock or clock source for PLL in these cases HSE will not disabled */
    if ((__HAL_RCC_GET_SYSCLK_SOURCE() == RCC_CFGR_SWS_HSE) || \
 8001bda:	4b88      	ldr	r3, [pc, #544]	@ (8001dfc <HAL_RCC_OscConfig+0x240>)
 8001bdc:	689b      	ldr	r3, [r3, #8]
 8001bde:	f003 030c 	and.w	r3, r3, #12
 8001be2:	2b04      	cmp	r3, #4
 8001be4:	d00c      	beq.n	8001c00 <HAL_RCC_OscConfig+0x44>
        ((__HAL_RCC_GET_SYSCLK_SOURCE() == RCC_CFGR_SWS_PLL) && ((RCC->PLLCFGR & RCC_PLLCFGR_PLLSRC) == RCC_PLLCFGR_PLLSRC_HSE)))
 8001be6:	4b85      	ldr	r3, [pc, #532]	@ (8001dfc <HAL_RCC_OscConfig+0x240>)
 8001be8:	689b      	ldr	r3, [r3, #8]
 8001bea:	f003 030c 	and.w	r3, r3, #12
    if ((__HAL_RCC_GET_SYSCLK_SOURCE() == RCC_CFGR_SWS_HSE) || \
 8001bee:	2b08      	cmp	r3, #8
 8001bf0:	d112      	bne.n	8001c18 <HAL_RCC_OscConfig+0x5c>
        ((__HAL_RCC_GET_SYSCLK_SOURCE() == RCC_CFGR_SWS_PLL) && ((RCC->PLLCFGR & RCC_PLLCFGR_PLLSRC) == RCC_PLLCFGR_PLLSRC_HSE)))
 8001bf2:	4b82      	ldr	r3, [pc, #520]	@ (8001dfc <HAL_RCC_OscConfig+0x240>)
 8001bf4:	685b      	ldr	r3, [r3, #4]
 8001bf6:	f403 0380 	and.w	r3, r3, #4194304	@ 0x400000
 8001bfa:	f5b3 0f80 	cmp.w	r3, #4194304	@ 0x400000
 8001bfe:	d10b      	bne.n	8001c18 <HAL_RCC_OscConfig+0x5c>
    {
      if ((__HAL_RCC_GET_FLAG(RCC_FLAG_HSERDY) != RESET) && (RCC_OscInitStruct->HSEState == RCC_HSE_OFF))
 8001c00:	4b7e      	ldr	r3, [pc, #504]	@ (8001dfc <HAL_RCC_OscConfig+0x240>)
 8001c02:	681b      	ldr	r3, [r3, #0]
 8001c04:	f403 3300 	and.w	r3, r3, #131072	@ 0x20000
 8001c08:	2b00      	cmp	r3, #0
 8001c0a:	d05b      	beq.n	8001cc4 <HAL_RCC_OscConfig+0x108>
 8001c0c:	687b      	ldr	r3, [r7, #4]
 8001c0e:	685b      	ldr	r3, [r3, #4]
 8001c10:	2b00      	cmp	r3, #0
 8001c12:	d157      	bne.n	8001cc4 <HAL_RCC_OscConfig+0x108>
      {
        return HAL_ERROR;
 8001c14:	2301      	movs	r3, #1
 8001c16:	e242      	b.n	800209e <HAL_RCC_OscConfig+0x4e2>
      }
    }
    else
    {
      /* Set the new HSE configuration ---------------------------------------*/
      __HAL_RCC_HSE_CONFIG(RCC_OscInitStruct->HSEState);
 8001c18:	687b      	ldr	r3, [r7, #4]
 8001c1a:	685b      	ldr	r3, [r3, #4]
 8001c1c:	f5b3 3f80 	cmp.w	r3, #65536	@ 0x10000
 8001c20:	d106      	bne.n	8001c30 <HAL_RCC_OscConfig+0x74>
 8001c22:	4b76      	ldr	r3, [pc, #472]	@ (8001dfc <HAL_RCC_OscConfig+0x240>)
 8001c24:	681b      	ldr	r3, [r3, #0]
 8001c26:	4a75      	ldr	r2, [pc, #468]	@ (8001dfc <HAL_RCC_OscConfig+0x240>)
 8001c28:	f443 3380 	orr.w	r3, r3, #65536	@ 0x10000
 8001c2c:	6013      	str	r3, [r2, #0]
 8001c2e:	e01d      	b.n	8001c6c <HAL_RCC_OscConfig+0xb0>
 8001c30:	687b      	ldr	r3, [r7, #4]
 8001c32:	685b      	ldr	r3, [r3, #4]
 8001c34:	f5b3 2fa0 	cmp.w	r3, #327680	@ 0x50000
 8001c38:	d10c      	bne.n	8001c54 <HAL_RCC_OscConfig+0x98>
 8001c3a:	4b70      	ldr	r3, [pc, #448]	@ (8001dfc <HAL_RCC_OscConfig+0x240>)
 8001c3c:	681b      	ldr	r3, [r3, #0]
 8001c3e:	4a6f      	ldr	r2, [pc, #444]	@ (8001dfc <HAL_RCC_OscConfig+0x240>)
 8001c40:	f443 2380 	orr.w	r3, r3, #262144	@ 0x40000
 8001c44:	6013      	str	r3, [r2, #0]
 8001c46:	4b6d      	ldr	r3, [pc, #436]	@ (8001dfc <HAL_RCC_OscConfig+0x240>)
 8001c48:	681b      	ldr	r3, [r3, #0]
 8001c4a:	4a6c      	ldr	r2, [pc, #432]	@ (8001dfc <HAL_RCC_OscConfig+0x240>)
 8001c4c:	f443 3380 	orr.w	r3, r3, #65536	@ 0x10000
 8001c50:	6013      	str	r3, [r2, #0]
 8001c52:	e00b      	b.n	8001c6c <HAL_RCC_OscConfig+0xb0>
 8001c54:	4b69      	ldr	r3, [pc, #420]	@ (8001dfc <HAL_RCC_OscConfig+0x240>)
 8001c56:	681b      	ldr	r3, [r3, #0]
 8001c58:	4a68      	ldr	r2, [pc, #416]	@ (8001dfc <HAL_RCC_OscConfig+0x240>)
 8001c5a:	f423 3380 	bic.w	r3, r3, #65536	@ 0x10000
 8001c5e:	6013      	str	r3, [r2, #0]
 8001c60:	4b66      	ldr	r3, [pc, #408]	@ (8001dfc <HAL_RCC_OscConfig+0x240>)
 8001c62:	681b      	ldr	r3, [r3, #0]
 8001c64:	4a65      	ldr	r2, [pc, #404]	@ (8001dfc <HAL_RCC_OscConfig+0x240>)
 8001c66:	f423 2380 	bic.w	r3, r3, #262144	@ 0x40000
 8001c6a:	6013      	str	r3, [r2, #0]

      /* Check the HSE State */
      if ((RCC_OscInitStruct->HSEState) != RCC_HSE_OFF)
 8001c6c:	687b      	ldr	r3, [r7, #4]
 8001c6e:	685b      	ldr	r3, [r3, #4]
 8001c70:	2b00      	cmp	r3, #0
 8001c72:	d013      	beq.n	8001c9c <HAL_RCC_OscConfig+0xe0>
      {
        /* Get Start Tick */
        tickstart = HAL_GetTick();
 8001c74:	f7ff fc7a 	bl	800156c <HAL_GetTick>
 8001c78:	6138      	str	r0, [r7, #16]

        /* Wait till HSE is ready */
        while (__HAL_RCC_GET_FLAG(RCC_FLAG_HSERDY) == RESET)
 8001c7a:	e008      	b.n	8001c8e <HAL_RCC_OscConfig+0xd2>
        {
          if ((HAL_GetTick() - tickstart) > HSE_TIMEOUT_VALUE)
 8001c7c:	f7ff fc76 	bl	800156c <HAL_GetTick>
 8001c80:	4602      	mov	r2, r0
 8001c82:	693b      	ldr	r3, [r7, #16]
 8001c84:	1ad3      	subs	r3, r2, r3
 8001c86:	2b64      	cmp	r3, #100	@ 0x64
 8001c88:	d901      	bls.n	8001c8e <HAL_RCC_OscConfig+0xd2>
          {
            return HAL_TIMEOUT;
 8001c8a:	2303      	movs	r3, #3
 8001c8c:	e207      	b.n	800209e <HAL_RCC_OscConfig+0x4e2>
        while (__HAL_RCC_GET_FLAG(RCC_FLAG_HSERDY) == RESET)
 8001c8e:	4b5b      	ldr	r3, [pc, #364]	@ (8001dfc <HAL_RCC_OscConfig+0x240>)
 8001c90:	681b      	ldr	r3, [r3, #0]
 8001c92:	f403 3300 	and.w	r3, r3, #131072	@ 0x20000
 8001c96:	2b00      	cmp	r3, #0
 8001c98:	d0f0      	beq.n	8001c7c <HAL_RCC_OscConfig+0xc0>
 8001c9a:	e014      	b.n	8001cc6 <HAL_RCC_OscConfig+0x10a>
        }
      }
      else
      {
        /* Get Start Tick */
        tickstart = HAL_GetTick();
 8001c9c:	f7ff fc66 	bl	800156c <HAL_GetTick>
 8001ca0:	6138      	str	r0, [r7, #16]

        /* Wait till HSE is bypassed or disabled */
        while (__HAL_RCC_GET_FLAG(RCC_FLAG_HSERDY) != RESET)
 8001ca2:	e008      	b.n	8001cb6 <HAL_RCC_OscConfig+0xfa>
        {
          if ((HAL_GetTick() - tickstart) > HSE_TIMEOUT_VALUE)
 8001ca4:	f7ff fc62 	bl	800156c <HAL_GetTick>
 8001ca8:	4602      	mov	r2, r0
 8001caa:	693b      	ldr	r3, [r7, #16]
 8001cac:	1ad3      	subs	r3, r2, r3
 8001cae:	2b64      	cmp	r3, #100	@ 0x64
 8001cb0:	d901      	bls.n	8001cb6 <HAL_RCC_OscConfig+0xfa>
          {
            return HAL_TIMEOUT;
 8001cb2:	2303      	movs	r3, #3
 8001cb4:	e1f3      	b.n	800209e <HAL_RCC_OscConfig+0x4e2>
        while (__HAL_RCC_GET_FLAG(RCC_FLAG_HSERDY) != RESET)
 8001cb6:	4b51      	ldr	r3, [pc, #324]	@ (8001dfc <HAL_RCC_OscConfig+0x240>)
 8001cb8:	681b      	ldr	r3, [r3, #0]
 8001cba:	f403 3300 	and.w	r3, r3, #131072	@ 0x20000
 8001cbe:	2b00      	cmp	r3, #0
 8001cc0:	d1f0      	bne.n	8001ca4 <HAL_RCC_OscConfig+0xe8>
 8001cc2:	e000      	b.n	8001cc6 <HAL_RCC_OscConfig+0x10a>
      if ((__HAL_RCC_GET_FLAG(RCC_FLAG_HSERDY) != RESET) && (RCC_OscInitStruct->HSEState == RCC_HSE_OFF))
 8001cc4:	bf00      	nop
        }
      }
    }
  }
  /*----------------------------- HSI Configuration --------------------------*/
  if (((RCC_OscInitStruct->OscillatorType) & RCC_OSCILLATORTYPE_HSI) == RCC_OSCILLATORTYPE_HSI)
 8001cc6:	687b      	ldr	r3, [r7, #4]
 8001cc8:	681b      	ldr	r3, [r3, #0]
 8001cca:	f003 0302 	and.w	r3, r3, #2
 8001cce:	2b00      	cmp	r3, #0
 8001cd0:	d063      	beq.n	8001d9a <HAL_RCC_OscConfig+0x1de>
    /* Check the parameters */
    assert_param(IS_RCC_HSI(RCC_OscInitStruct->HSIState));
    assert_param(IS_RCC_CALIBRATION_VALUE(RCC_OscInitStruct->HSICalibrationValue));

    /* Check if HSI is used as system clock or as PLL source when PLL is selected as system clock */
    if ((__HAL_RCC_GET_SYSCLK_SOURCE() == RCC_CFGR_SWS_HSI) || \
 8001cd2:	4b4a      	ldr	r3, [pc, #296]	@ (8001dfc <HAL_RCC_OscConfig+0x240>)
 8001cd4:	689b      	ldr	r3, [r3, #8]
 8001cd6:	f003 030c 	and.w	r3, r3, #12
 8001cda:	2b00      	cmp	r3, #0
 8001cdc:	d00b      	beq.n	8001cf6 <HAL_RCC_OscConfig+0x13a>
        ((__HAL_RCC_GET_SYSCLK_SOURCE() == RCC_CFGR_SWS_PLL) && ((RCC->PLLCFGR & RCC_PLLCFGR_PLLSRC) == RCC_PLLCFGR_PLLSRC_HSI)))
 8001cde:	4b47      	ldr	r3, [pc, #284]	@ (8001dfc <HAL_RCC_OscConfig+0x240>)
 8001ce0:	689b      	ldr	r3, [r3, #8]
 8001ce2:	f003 030c 	and.w	r3, r3, #12
    if ((__HAL_RCC_GET_SYSCLK_SOURCE() == RCC_CFGR_SWS_HSI) || \
 8001ce6:	2b08      	cmp	r3, #8
 8001ce8:	d11c      	bne.n	8001d24 <HAL_RCC_OscConfig+0x168>
        ((__HAL_RCC_GET_SYSCLK_SOURCE() == RCC_CFGR_SWS_PLL) && ((RCC->PLLCFGR & RCC_PLLCFGR_PLLSRC) == RCC_PLLCFGR_PLLSRC_HSI)))
 8001cea:	4b44      	ldr	r3, [pc, #272]	@ (8001dfc <HAL_RCC_OscConfig+0x240>)
 8001cec:	685b      	ldr	r3, [r3, #4]
 8001cee:	f403 0380 	and.w	r3, r3, #4194304	@ 0x400000
 8001cf2:	2b00      	cmp	r3, #0
 8001cf4:	d116      	bne.n	8001d24 <HAL_RCC_OscConfig+0x168>
    {
      /* When HSI is used as system clock it will not disabled */
      if ((__HAL_RCC_GET_FLAG(RCC_FLAG_HSIRDY) != RESET) && (RCC_OscInitStruct->HSIState != RCC_HSI_ON))
 8001cf6:	4b41      	ldr	r3, [pc, #260]	@ (8001dfc <HAL_RCC_OscConfig+0x240>)
 8001cf8:	681b      	ldr	r3, [r3, #0]
 8001cfa:	f003 0302 	and.w	r3, r3, #2
 8001cfe:	2b00      	cmp	r3, #0
 8001d00:	d005      	beq.n	8001d0e <HAL_RCC_OscConfig+0x152>
 8001d02:	687b      	ldr	r3, [r7, #4]
 8001d04:	68db      	ldr	r3, [r3, #12]
 8001d06:	2b01      	cmp	r3, #1
 8001d08:	d001      	beq.n	8001d0e <HAL_RCC_OscConfig+0x152>
      {
        return HAL_ERROR;
 8001d0a:	2301      	movs	r3, #1
 8001d0c:	e1c7      	b.n	800209e <HAL_RCC_OscConfig+0x4e2>
      }
      /* Otherwise, just the calibration is allowed */
      else
      {
        /* Adjusts the Internal High Speed oscillator (HSI) calibration value.*/
        __HAL_RCC_HSI_CALIBRATIONVALUE_ADJUST(RCC_OscInitStruct->HSICalibrationValue);
 8001d0e:	4b3b      	ldr	r3, [pc, #236]	@ (8001dfc <HAL_RCC_OscConfig+0x240>)
 8001d10:	681b      	ldr	r3, [r3, #0]
 8001d12:	f023 02f8 	bic.w	r2, r3, #248	@ 0xf8
 8001d16:	687b      	ldr	r3, [r7, #4]
 8001d18:	691b      	ldr	r3, [r3, #16]
 8001d1a:	00db      	lsls	r3, r3, #3
 8001d1c:	4937      	ldr	r1, [pc, #220]	@ (8001dfc <HAL_RCC_OscConfig+0x240>)
 8001d1e:	4313      	orrs	r3, r2
 8001d20:	600b      	str	r3, [r1, #0]
      if ((__HAL_RCC_GET_FLAG(RCC_FLAG_HSIRDY) != RESET) && (RCC_OscInitStruct->HSIState != RCC_HSI_ON))
 8001d22:	e03a      	b.n	8001d9a <HAL_RCC_OscConfig+0x1de>
      }
    }
    else
    {
      /* Check the HSI State */
      if ((RCC_OscInitStruct->HSIState) != RCC_HSI_OFF)
 8001d24:	687b      	ldr	r3, [r7, #4]
 8001d26:	68db      	ldr	r3, [r3, #12]
 8001d28:	2b00      	cmp	r3, #0
 8001d2a:	d020      	beq.n	8001d6e <HAL_RCC_OscConfig+0x1b2>
      {
        /* Enable the Internal High Speed oscillator (HSI). */
        __HAL_RCC_HSI_ENABLE();
 8001d2c:	4b34      	ldr	r3, [pc, #208]	@ (8001e00 <HAL_RCC_OscConfig+0x244>)
 8001d2e:	2201      	movs	r2, #1
 8001d30:	601a      	str	r2, [r3, #0]

        /* Get Start Tick*/
        tickstart = HAL_GetTick();
 8001d32:	f7ff fc1b 	bl	800156c <HAL_GetTick>
 8001d36:	6138      	str	r0, [r7, #16]

        /* Wait till HSI is ready */
        while (__HAL_RCC_GET_FLAG(RCC_FLAG_HSIRDY) == RESET)
 8001d38:	e008      	b.n	8001d4c <HAL_RCC_OscConfig+0x190>
        {
          if ((HAL_GetTick() - tickstart) > HSI_TIMEOUT_VALUE)
 8001d3a:	f7ff fc17 	bl	800156c <HAL_GetTick>
 8001d3e:	4602      	mov	r2, r0
 8001d40:	693b      	ldr	r3, [r7, #16]
 8001d42:	1ad3      	subs	r3, r2, r3
 8001d44:	2b02      	cmp	r3, #2
 8001d46:	d901      	bls.n	8001d4c <HAL_RCC_OscConfig+0x190>
          {
            return HAL_TIMEOUT;
 8001d48:	2303      	movs	r3, #3
 8001d4a:	e1a8      	b.n	800209e <HAL_RCC_OscConfig+0x4e2>
        while (__HAL_RCC_GET_FLAG(RCC_FLAG_HSIRDY) == RESET)
 8001d4c:	4b2b      	ldr	r3, [pc, #172]	@ (8001dfc <HAL_RCC_OscConfig+0x240>)
 8001d4e:	681b      	ldr	r3, [r3, #0]
 8001d50:	f003 0302 	and.w	r3, r3, #2
 8001d54:	2b00      	cmp	r3, #0
 8001d56:	d0f0      	beq.n	8001d3a <HAL_RCC_OscConfig+0x17e>
          }
        }

        /* Adjusts the Internal High Speed oscillator (HSI) calibration value. */
        __HAL_RCC_HSI_CALIBRATIONVALUE_ADJUST(RCC_OscInitStruct->HSICalibrationValue);
 8001d58:	4b28      	ldr	r3, [pc, #160]	@ (8001dfc <HAL_RCC_OscConfig+0x240>)
 8001d5a:	681b      	ldr	r3, [r3, #0]
 8001d5c:	f023 02f8 	bic.w	r2, r3, #248	@ 0xf8
 8001d60:	687b      	ldr	r3, [r7, #4]
 8001d62:	691b      	ldr	r3, [r3, #16]
 8001d64:	00db      	lsls	r3, r3, #3
 8001d66:	4925      	ldr	r1, [pc, #148]	@ (8001dfc <HAL_RCC_OscConfig+0x240>)
 8001d68:	4313      	orrs	r3, r2
 8001d6a:	600b      	str	r3, [r1, #0]
 8001d6c:	e015      	b.n	8001d9a <HAL_RCC_OscConfig+0x1de>
      }
      else
      {
        /* Disable the Internal High Speed oscillator (HSI). */
        __HAL_RCC_HSI_DISABLE();
 8001d6e:	4b24      	ldr	r3, [pc, #144]	@ (8001e00 <HAL_RCC_OscConfig+0x244>)
 8001d70:	2200      	movs	r2, #0
 8001d72:	601a      	str	r2, [r3, #0]

        /* Get Start Tick*/
        tickstart = HAL_GetTick();
 8001d74:	f7ff fbfa 	bl	800156c <HAL_GetTick>
 8001d78:	6138      	str	r0, [r7, #16]

        /* Wait till HSI is ready */
        while (__HAL_RCC_GET_FLAG(RCC_FLAG_HSIRDY) != RESET)
 8001d7a:	e008      	b.n	8001d8e <HAL_RCC_OscConfig+0x1d2>
        {
          if ((HAL_GetTick() - tickstart) > HSI_TIMEOUT_VALUE)
 8001d7c:	f7ff fbf6 	bl	800156c <HAL_GetTick>
 8001d80:	4602      	mov	r2, r0
 8001d82:	693b      	ldr	r3, [r7, #16]
 8001d84:	1ad3      	subs	r3, r2, r3
 8001d86:	2b02      	cmp	r3, #2
 8001d88:	d901      	bls.n	8001d8e <HAL_RCC_OscConfig+0x1d2>
          {
            return HAL_TIMEOUT;
 8001d8a:	2303      	movs	r3, #3
 8001d8c:	e187      	b.n	800209e <HAL_RCC_OscConfig+0x4e2>
        while (__HAL_RCC_GET_FLAG(RCC_FLAG_HSIRDY) != RESET)
 8001d8e:	4b1b      	ldr	r3, [pc, #108]	@ (8001dfc <HAL_RCC_OscConfig+0x240>)
 8001d90:	681b      	ldr	r3, [r3, #0]
 8001d92:	f003 0302 	and.w	r3, r3, #2
 8001d96:	2b00      	cmp	r3, #0
 8001d98:	d1f0      	bne.n	8001d7c <HAL_RCC_OscConfig+0x1c0>
        }
      }
    }
  }
  /*------------------------------ LSI Configuration -------------------------*/
  if (((RCC_OscInitStruct->OscillatorType) & RCC_OSCILLATORTYPE_LSI) == RCC_OSCILLATORTYPE_LSI)
 8001d9a:	687b      	ldr	r3, [r7, #4]
 8001d9c:	681b      	ldr	r3, [r3, #0]
 8001d9e:	f003 0308 	and.w	r3, r3, #8
 8001da2:	2b00      	cmp	r3, #0
 8001da4:	d036      	beq.n	8001e14 <HAL_RCC_OscConfig+0x258>
  {
    /* Check the parameters */
    assert_param(IS_RCC_LSI(RCC_OscInitStruct->LSIState));

    /* Check the LSI State */
    if ((RCC_OscInitStruct->LSIState) != RCC_LSI_OFF)
 8001da6:	687b      	ldr	r3, [r7, #4]
 8001da8:	695b      	ldr	r3, [r3, #20]
 8001daa:	2b00      	cmp	r3, #0
 8001dac:	d016      	beq.n	8001ddc <HAL_RCC_OscConfig+0x220>
    {
      /* Enable the Internal Low Speed oscillator (LSI). */
      __HAL_RCC_LSI_ENABLE();
 8001dae:	4b15      	ldr	r3, [pc, #84]	@ (8001e04 <HAL_RCC_OscConfig+0x248>)
 8001db0:	2201      	movs	r2, #1
 8001db2:	601a      	str	r2, [r3, #0]

      /* Get Start Tick*/
      tickstart = HAL_GetTick();
 8001db4:	f7ff fbda 	bl	800156c <HAL_GetTick>
 8001db8:	6138      	str	r0, [r7, #16]

      /* Wait till LSI is ready */
      while (__HAL_RCC_GET_FLAG(RCC_FLAG_LSIRDY) == RESET)
 8001dba:	e008      	b.n	8001dce <HAL_RCC_OscConfig+0x212>
      {
        if ((HAL_GetTick() - tickstart) > LSI_TIMEOUT_VALUE)
 8001dbc:	f7ff fbd6 	bl	800156c <HAL_GetTick>
 8001dc0:	4602      	mov	r2, r0
 8001dc2:	693b      	ldr	r3, [r7, #16]
 8001dc4:	1ad3      	subs	r3, r2, r3
 8001dc6:	2b02      	cmp	r3, #2
 8001dc8:	d901      	bls.n	8001dce <HAL_RCC_OscConfig+0x212>
        {
          return HAL_TIMEOUT;
 8001dca:	2303      	movs	r3, #3
 8001dcc:	e167      	b.n	800209e <HAL_RCC_OscConfig+0x4e2>
      while (__HAL_RCC_GET_FLAG(RCC_FLAG_LSIRDY) == RESET)
 8001dce:	4b0b      	ldr	r3, [pc, #44]	@ (8001dfc <HAL_RCC_OscConfig+0x240>)
 8001dd0:	6f5b      	ldr	r3, [r3, #116]	@ 0x74
 8001dd2:	f003 0302 	and.w	r3, r3, #2
 8001dd6:	2b00      	cmp	r3, #0
 8001dd8:	d0f0      	beq.n	8001dbc <HAL_RCC_OscConfig+0x200>
 8001dda:	e01b      	b.n	8001e14 <HAL_RCC_OscConfig+0x258>
      }
    }
    else
    {
      /* Disable the Internal Low Speed oscillator (LSI). */
      __HAL_RCC_LSI_DISABLE();
 8001ddc:	4b09      	ldr	r3, [pc, #36]	@ (8001e04 <HAL_RCC_OscConfig+0x248>)
 8001dde:	2200      	movs	r2, #0
 8001de0:	601a      	str	r2, [r3, #0]

      /* Get Start Tick */
      tickstart = HAL_GetTick();
 8001de2:	f7ff fbc3 	bl	800156c <HAL_GetTick>
 8001de6:	6138      	str	r0, [r7, #16]

      /* Wait till LSI is ready */
      while (__HAL_RCC_GET_FLAG(RCC_FLAG_LSIRDY) != RESET)
 8001de8:	e00e      	b.n	8001e08 <HAL_RCC_OscConfig+0x24c>
      {
        if ((HAL_GetTick() - tickstart) > LSI_TIMEOUT_VALUE)
 8001dea:	f7ff fbbf 	bl	800156c <HAL_GetTick>
 8001dee:	4602      	mov	r2, r0
 8001df0:	693b      	ldr	r3, [r7, #16]
 8001df2:	1ad3      	subs	r3, r2, r3
 8001df4:	2b02      	cmp	r3, #2
 8001df6:	d907      	bls.n	8001e08 <HAL_RCC_OscConfig+0x24c>
        {
          return HAL_TIMEOUT;
 8001df8:	2303      	movs	r3, #3
 8001dfa:	e150      	b.n	800209e <HAL_RCC_OscConfig+0x4e2>
 8001dfc:	40023800 	.word	0x40023800
 8001e00:	42470000 	.word	0x42470000
 8001e04:	42470e80 	.word	0x42470e80
      while (__HAL_RCC_GET_FLAG(RCC_FLAG_LSIRDY) != RESET)
 8001e08:	4b88      	ldr	r3, [pc, #544]	@ (800202c <HAL_RCC_OscConfig+0x470>)
 8001e0a:	6f5b      	ldr	r3, [r3, #116]	@ 0x74
 8001e0c:	f003 0302 	and.w	r3, r3, #2
 8001e10:	2b00      	cmp	r3, #0
 8001e12:	d1ea      	bne.n	8001dea <HAL_RCC_OscConfig+0x22e>
        }
      }
    }
  }
  /*------------------------------ LSE Configuration -------------------------*/
  if (((RCC_OscInitStruct->OscillatorType) & RCC_OSCILLATORTYPE_LSE) == RCC_OSCILLATORTYPE_LSE)
 8001e14:	687b      	ldr	r3, [r7, #4]
 8001e16:	681b      	ldr	r3, [r3, #0]
 8001e18:	f003 0304 	and.w	r3, r3, #4
 8001e1c:	2b00      	cmp	r3, #0
 8001e1e:	f000 8097 	beq.w	8001f50 <HAL_RCC_OscConfig+0x394>
  {
    FlagStatus       pwrclkchanged = RESET;
 8001e22:	2300      	movs	r3, #0
 8001e24:	75fb      	strb	r3, [r7, #23]
    /* Check the parameters */
    assert_param(IS_RCC_LSE(RCC_OscInitStruct->LSEState));

    /* Update LSE configuration in Backup Domain control register    */
    /* Requires to enable write access to Backup Domain of necessary */
    if (__HAL_RCC_PWR_IS_CLK_DISABLED())
 8001e26:	4b81      	ldr	r3, [pc, #516]	@ (800202c <HAL_RCC_OscConfig+0x470>)
 8001e28:	6c1b      	ldr	r3, [r3, #64]	@ 0x40
 8001e2a:	f003 5380 	and.w	r3, r3, #268435456	@ 0x10000000
 8001e2e:	2b00      	cmp	r3, #0
 8001e30:	d10f      	bne.n	8001e52 <HAL_RCC_OscConfig+0x296>
    {
      __HAL_RCC_PWR_CLK_ENABLE();
 8001e32:	2300      	movs	r3, #0
 8001e34:	60bb      	str	r3, [r7, #8]
 8001e36:	4b7d      	ldr	r3, [pc, #500]	@ (800202c <HAL_RCC_OscConfig+0x470>)
 8001e38:	6c1b      	ldr	r3, [r3, #64]	@ 0x40
 8001e3a:	4a7c      	ldr	r2, [pc, #496]	@ (800202c <HAL_RCC_OscConfig+0x470>)
 8001e3c:	f043 5380 	orr.w	r3, r3, #268435456	@ 0x10000000
 8001e40:	6413      	str	r3, [r2, #64]	@ 0x40
 8001e42:	4b7a      	ldr	r3, [pc, #488]	@ (800202c <HAL_RCC_OscConfig+0x470>)
 8001e44:	6c1b      	ldr	r3, [r3, #64]	@ 0x40
 8001e46:	f003 5380 	and.w	r3, r3, #268435456	@ 0x10000000
 8001e4a:	60bb      	str	r3, [r7, #8]
 8001e4c:	68bb      	ldr	r3, [r7, #8]
      pwrclkchanged = SET;
 8001e4e:	2301      	movs	r3, #1
 8001e50:	75fb      	strb	r3, [r7, #23]
    }

    if (HAL_IS_BIT_CLR(PWR->CR, PWR_CR_DBP))
 8001e52:	4b77      	ldr	r3, [pc, #476]	@ (8002030 <HAL_RCC_OscConfig+0x474>)
 8001e54:	681b      	ldr	r3, [r3, #0]
 8001e56:	f403 7380 	and.w	r3, r3, #256	@ 0x100
 8001e5a:	2b00      	cmp	r3, #0
 8001e5c:	d118      	bne.n	8001e90 <HAL_RCC_OscConfig+0x2d4>
    {
      /* Enable write access to Backup domain */
      SET_BIT(PWR->CR, PWR_CR_DBP);
 8001e5e:	4b74      	ldr	r3, [pc, #464]	@ (8002030 <HAL_RCC_OscConfig+0x474>)
 8001e60:	681b      	ldr	r3, [r3, #0]
 8001e62:	4a73      	ldr	r2, [pc, #460]	@ (8002030 <HAL_RCC_OscConfig+0x474>)
 8001e64:	f443 7380 	orr.w	r3, r3, #256	@ 0x100
 8001e68:	6013      	str	r3, [r2, #0]

      /* Wait for Backup domain Write protection disable */
      tickstart = HAL_GetTick();
 8001e6a:	f7ff fb7f 	bl	800156c <HAL_GetTick>
 8001e6e:	6138      	str	r0, [r7, #16]

      while (HAL_IS_BIT_CLR(PWR->CR, PWR_CR_DBP))
 8001e70:	e008      	b.n	8001e84 <HAL_RCC_OscConfig+0x2c8>
      {
        if ((HAL_GetTick() - tickstart) > RCC_DBP_TIMEOUT_VALUE)
 8001e72:	f7ff fb7b 	bl	800156c <HAL_GetTick>
 8001e76:	4602      	mov	r2, r0
 8001e78:	693b      	ldr	r3, [r7, #16]
 8001e7a:	1ad3      	subs	r3, r2, r3
 8001e7c:	2b02      	cmp	r3, #2
 8001e7e:	d901      	bls.n	8001e84 <HAL_RCC_OscConfig+0x2c8>
        {
          return HAL_TIMEOUT;
 8001e80:	2303      	movs	r3, #3
 8001e82:	e10c      	b.n	800209e <HAL_RCC_OscConfig+0x4e2>
      while (HAL_IS_BIT_CLR(PWR->CR, PWR_CR_DBP))
 8001e84:	4b6a      	ldr	r3, [pc, #424]	@ (8002030 <HAL_RCC_OscConfig+0x474>)
 8001e86:	681b      	ldr	r3, [r3, #0]
 8001e88:	f403 7380 	and.w	r3, r3, #256	@ 0x100
 8001e8c:	2b00      	cmp	r3, #0
 8001e8e:	d0f0      	beq.n	8001e72 <HAL_RCC_OscConfig+0x2b6>
        }
      }
    }

    /* Set the new LSE configuration -----------------------------------------*/
    __HAL_RCC_LSE_CONFIG(RCC_OscInitStruct->LSEState);
 8001e90:	687b      	ldr	r3, [r7, #4]
 8001e92:	689b      	ldr	r3, [r3, #8]
 8001e94:	2b01      	cmp	r3, #1
 8001e96:	d106      	bne.n	8001ea6 <HAL_RCC_OscConfig+0x2ea>
 8001e98:	4b64      	ldr	r3, [pc, #400]	@ (800202c <HAL_RCC_OscConfig+0x470>)
 8001e9a:	6f1b      	ldr	r3, [r3, #112]	@ 0x70
 8001e9c:	4a63      	ldr	r2, [pc, #396]	@ (800202c <HAL_RCC_OscConfig+0x470>)
 8001e9e:	f043 0301 	orr.w	r3, r3, #1
 8001ea2:	6713      	str	r3, [r2, #112]	@ 0x70
 8001ea4:	e01c      	b.n	8001ee0 <HAL_RCC_OscConfig+0x324>
 8001ea6:	687b      	ldr	r3, [r7, #4]
 8001ea8:	689b      	ldr	r3, [r3, #8]
 8001eaa:	2b05      	cmp	r3, #5
 8001eac:	d10c      	bne.n	8001ec8 <HAL_RCC_OscConfig+0x30c>
 8001eae:	4b5f      	ldr	r3, [pc, #380]	@ (800202c <HAL_RCC_OscConfig+0x470>)
 8001eb0:	6f1b      	ldr	r3, [r3, #112]	@ 0x70
 8001eb2:	4a5e      	ldr	r2, [pc, #376]	@ (800202c <HAL_RCC_OscConfig+0x470>)
 8001eb4:	f043 0304 	orr.w	r3, r3, #4
 8001eb8:	6713      	str	r3, [r2, #112]	@ 0x70
 8001eba:	4b5c      	ldr	r3, [pc, #368]	@ (800202c <HAL_RCC_OscConfig+0x470>)
 8001ebc:	6f1b      	ldr	r3, [r3, #112]	@ 0x70
 8001ebe:	4a5b      	ldr	r2, [pc, #364]	@ (800202c <HAL_RCC_OscConfig+0x470>)
 8001ec0:	f043 0301 	orr.w	r3, r3, #1
 8001ec4:	6713      	str	r3, [r2, #112]	@ 0x70
 8001ec6:	e00b      	b.n	8001ee0 <HAL_RCC_OscConfig+0x324>
 8001ec8:	4b58      	ldr	r3, [pc, #352]	@ (800202c <HAL_RCC_OscConfig+0x470>)
 8001eca:	6f1b      	ldr	r3, [r3, #112]	@ 0x70
 8001ecc:	4a57      	ldr	r2, [pc, #348]	@ (800202c <HAL_RCC_OscConfig+0x470>)
 8001ece:	f023 0301 	bic.w	r3, r3, #1
 8001ed2:	6713      	str	r3, [r2, #112]	@ 0x70
 8001ed4:	4b55      	ldr	r3, [pc, #340]	@ (800202c <HAL_RCC_OscConfig+0x470>)
 8001ed6:	6f1b      	ldr	r3, [r3, #112]	@ 0x70
 8001ed8:	4a54      	ldr	r2, [pc, #336]	@ (800202c <HAL_RCC_OscConfig+0x470>)
 8001eda:	f023 0304 	bic.w	r3, r3, #4
 8001ede:	6713      	str	r3, [r2, #112]	@ 0x70
    /* Check the LSE State */
    if ((RCC_OscInitStruct->LSEState) != RCC_LSE_OFF)
 8001ee0:	687b      	ldr	r3, [r7, #4]
 8001ee2:	689b      	ldr	r3, [r3, #8]
 8001ee4:	2b00      	cmp	r3, #0
 8001ee6:	d015      	beq.n	8001f14 <HAL_RCC_OscConfig+0x358>
    {
      /* Get Start Tick*/
      tickstart = HAL_GetTick();
 8001ee8:	f7ff fb40 	bl	800156c <HAL_GetTick>
 8001eec:	6138      	str	r0, [r7, #16]

      /* Wait till LSE is ready */
      while (__HAL_RCC_GET_FLAG(RCC_FLAG_LSERDY) == RESET)
 8001eee:	e00a      	b.n	8001f06 <HAL_RCC_OscConfig+0x34a>
      {
        if ((HAL_GetTick() - tickstart) > RCC_LSE_TIMEOUT_VALUE)
 8001ef0:	f7ff fb3c 	bl	800156c <HAL_GetTick>
 8001ef4:	4602      	mov	r2, r0
 8001ef6:	693b      	ldr	r3, [r7, #16]
 8001ef8:	1ad3      	subs	r3, r2, r3
 8001efa:	f241 3288 	movw	r2, #5000	@ 0x1388
 8001efe:	4293      	cmp	r3, r2
 8001f00:	d901      	bls.n	8001f06 <HAL_RCC_OscConfig+0x34a>
        {
          return HAL_TIMEOUT;
 8001f02:	2303      	movs	r3, #3
 8001f04:	e0cb      	b.n	800209e <HAL_RCC_OscConfig+0x4e2>
      while (__HAL_RCC_GET_FLAG(RCC_FLAG_LSERDY) == RESET)
 8001f06:	4b49      	ldr	r3, [pc, #292]	@ (800202c <HAL_RCC_OscConfig+0x470>)
 8001f08:	6f1b      	ldr	r3, [r3, #112]	@ 0x70
 8001f0a:	f003 0302 	and.w	r3, r3, #2
 8001f0e:	2b00      	cmp	r3, #0
 8001f10:	d0ee      	beq.n	8001ef0 <HAL_RCC_OscConfig+0x334>
 8001f12:	e014      	b.n	8001f3e <HAL_RCC_OscConfig+0x382>
      }
    }
    else
    {
      /* Get Start Tick */
      tickstart = HAL_GetTick();
 8001f14:	f7ff fb2a 	bl	800156c <HAL_GetTick>
 8001f18:	6138      	str	r0, [r7, #16]

      /* Wait till LSE is ready */
      while (__HAL_RCC_GET_FLAG(RCC_FLAG_LSERDY) != RESET)
 8001f1a:	e00a      	b.n	8001f32 <HAL_RCC_OscConfig+0x376>
      {
        if ((HAL_GetTick() - tickstart) > RCC_LSE_TIMEOUT_VALUE)
 8001f1c:	f7ff fb26 	bl	800156c <HAL_GetTick>
 8001f20:	4602      	mov	r2, r0
 8001f22:	693b      	ldr	r3, [r7, #16]
 8001f24:	1ad3      	subs	r3, r2, r3
 8001f26:	f241 3288 	movw	r2, #5000	@ 0x1388
 8001f2a:	4293      	cmp	r3, r2
 8001f2c:	d901      	bls.n	8001f32 <HAL_RCC_OscConfig+0x376>
        {
          return HAL_TIMEOUT;
 8001f2e:	2303      	movs	r3, #3
 8001f30:	e0b5      	b.n	800209e <HAL_RCC_OscConfig+0x4e2>
      while (__HAL_RCC_GET_FLAG(RCC_FLAG_LSERDY) != RESET)
 8001f32:	4b3e      	ldr	r3, [pc, #248]	@ (800202c <HAL_RCC_OscConfig+0x470>)
 8001f34:	6f1b      	ldr	r3, [r3, #112]	@ 0x70
 8001f36:	f003 0302 	and.w	r3, r3, #2
 8001f3a:	2b00      	cmp	r3, #0
 8001f3c:	d1ee      	bne.n	8001f1c <HAL_RCC_OscConfig+0x360>
        }
      }
    }

    /* Restore clock configuration if changed */
    if (pwrclkchanged == SET)
 8001f3e:	7dfb      	ldrb	r3, [r7, #23]
 8001f40:	2b01      	cmp	r3, #1
 8001f42:	d105      	bne.n	8001f50 <HAL_RCC_OscConfig+0x394>
    {
      __HAL_RCC_PWR_CLK_DISABLE();
 8001f44:	4b39      	ldr	r3, [pc, #228]	@ (800202c <HAL_RCC_OscConfig+0x470>)
 8001f46:	6c1b      	ldr	r3, [r3, #64]	@ 0x40
 8001f48:	4a38      	ldr	r2, [pc, #224]	@ (800202c <HAL_RCC_OscConfig+0x470>)
 8001f4a:	f023 5380 	bic.w	r3, r3, #268435456	@ 0x10000000
 8001f4e:	6413      	str	r3, [r2, #64]	@ 0x40
    }
  }
  /*-------------------------------- PLL Configuration -----------------------*/
  /* Check the parameters */
  assert_param(IS_RCC_PLL(RCC_OscInitStruct->PLL.PLLState));
  if ((RCC_OscInitStruct->PLL.PLLState) != RCC_PLL_NONE)
 8001f50:	687b      	ldr	r3, [r7, #4]
 8001f52:	699b      	ldr	r3, [r3, #24]
 8001f54:	2b00      	cmp	r3, #0
 8001f56:	f000 80a1 	beq.w	800209c <HAL_RCC_OscConfig+0x4e0>
  {
    /* Check if the PLL is used as system clock or not */
    if (__HAL_RCC_GET_SYSCLK_SOURCE() != RCC_CFGR_SWS_PLL)
 8001f5a:	4b34      	ldr	r3, [pc, #208]	@ (800202c <HAL_RCC_OscConfig+0x470>)
 8001f5c:	689b      	ldr	r3, [r3, #8]
 8001f5e:	f003 030c 	and.w	r3, r3, #12
 8001f62:	2b08      	cmp	r3, #8
 8001f64:	d05c      	beq.n	8002020 <HAL_RCC_OscConfig+0x464>
    {
      if ((RCC_OscInitStruct->PLL.PLLState) == RCC_PLL_ON)
 8001f66:	687b      	ldr	r3, [r7, #4]
 8001f68:	699b      	ldr	r3, [r3, #24]
 8001f6a:	2b02      	cmp	r3, #2
 8001f6c:	d141      	bne.n	8001ff2 <HAL_RCC_OscConfig+0x436>
        assert_param(IS_RCC_PLLN_VALUE(RCC_OscInitStruct->PLL.PLLN));
        assert_param(IS_RCC_PLLP_VALUE(RCC_OscInitStruct->PLL.PLLP));
        assert_param(IS_RCC_PLLQ_VALUE(RCC_OscInitStruct->PLL.PLLQ));

        /* Disable the main PLL. */
        __HAL_RCC_PLL_DISABLE();
 8001f6e:	4b31      	ldr	r3, [pc, #196]	@ (8002034 <HAL_RCC_OscConfig+0x478>)
 8001f70:	2200      	movs	r2, #0
 8001f72:	601a      	str	r2, [r3, #0]

        /* Get Start Tick */
        tickstart = HAL_GetTick();
 8001f74:	f7ff fafa 	bl	800156c <HAL_GetTick>
 8001f78:	6138      	str	r0, [r7, #16]

        /* Wait till PLL is disabled */
        while (__HAL_RCC_GET_FLAG(RCC_FLAG_PLLRDY) != RESET)
 8001f7a:	e008      	b.n	8001f8e <HAL_RCC_OscConfig+0x3d2>
        {
          if ((HAL_GetTick() - tickstart) > PLL_TIMEOUT_VALUE)
 8001f7c:	f7ff faf6 	bl	800156c <HAL_GetTick>
 8001f80:	4602      	mov	r2, r0
 8001f82:	693b      	ldr	r3, [r7, #16]
 8001f84:	1ad3      	subs	r3, r2, r3
 8001f86:	2b02      	cmp	r3, #2
 8001f88:	d901      	bls.n	8001f8e <HAL_RCC_OscConfig+0x3d2>
          {
            return HAL_TIMEOUT;
 8001f8a:	2303      	movs	r3, #3
 8001f8c:	e087      	b.n	800209e <HAL_RCC_OscConfig+0x4e2>
        while (__HAL_RCC_GET_FLAG(RCC_FLAG_PLLRDY) != RESET)
 8001f8e:	4b27      	ldr	r3, [pc, #156]	@ (800202c <HAL_RCC_OscConfig+0x470>)
 8001f90:	681b      	ldr	r3, [r3, #0]
 8001f92:	f003 7300 	and.w	r3, r3, #33554432	@ 0x2000000
 8001f96:	2b00      	cmp	r3, #0
 8001f98:	d1f0      	bne.n	8001f7c <HAL_RCC_OscConfig+0x3c0>
          }
        }

        /* Configure the main PLL clock source, multiplication and division factors. */
        WRITE_REG(RCC->PLLCFGR, (RCC_OscInitStruct->PLL.PLLSource                                            | \
 8001f9a:	687b      	ldr	r3, [r7, #4]
 8001f9c:	69da      	ldr	r2, [r3, #28]
 8001f9e:	687b      	ldr	r3, [r7, #4]
 8001fa0:	6a1b      	ldr	r3, [r3, #32]
 8001fa2:	431a      	orrs	r2, r3
 8001fa4:	687b      	ldr	r3, [r7, #4]
 8001fa6:	6a5b      	ldr	r3, [r3, #36]	@ 0x24
 8001fa8:	019b      	lsls	r3, r3, #6
 8001faa:	431a      	orrs	r2, r3
 8001fac:	687b      	ldr	r3, [r7, #4]
 8001fae:	6a9b      	ldr	r3, [r3, #40]	@ 0x28
 8001fb0:	085b      	lsrs	r3, r3, #1
 8001fb2:	3b01      	subs	r3, #1
 8001fb4:	041b      	lsls	r3, r3, #16
 8001fb6:	431a      	orrs	r2, r3
 8001fb8:	687b      	ldr	r3, [r7, #4]
 8001fba:	6adb      	ldr	r3, [r3, #44]	@ 0x2c
 8001fbc:	061b      	lsls	r3, r3, #24
 8001fbe:	491b      	ldr	r1, [pc, #108]	@ (800202c <HAL_RCC_OscConfig+0x470>)
 8001fc0:	4313      	orrs	r3, r2
 8001fc2:	604b      	str	r3, [r1, #4]
                                 RCC_OscInitStruct->PLL.PLLM                                                 | \
                                 (RCC_OscInitStruct->PLL.PLLN << RCC_PLLCFGR_PLLN_Pos)             | \
                                 (((RCC_OscInitStruct->PLL.PLLP >> 1U) - 1U) << RCC_PLLCFGR_PLLP_Pos) | \
                                 (RCC_OscInitStruct->PLL.PLLQ << RCC_PLLCFGR_PLLQ_Pos)));
        /* Enable the main PLL. */
        __HAL_RCC_PLL_ENABLE();
 8001fc4:	4b1b      	ldr	r3, [pc, #108]	@ (8002034 <HAL_RCC_OscConfig+0x478>)
 8001fc6:	2201      	movs	r2, #1
 8001fc8:	601a      	str	r2, [r3, #0]

        /* Get Start Tick */
        tickstart = HAL_GetTick();
 8001fca:	f7ff facf 	bl	800156c <HAL_GetTick>
 8001fce:	6138      	str	r0, [r7, #16]

        /* Wait till PLL is ready */
        while (__HAL_RCC_GET_FLAG(RCC_FLAG_PLLRDY) == RESET)
 8001fd0:	e008      	b.n	8001fe4 <HAL_RCC_OscConfig+0x428>
        {
          if ((HAL_GetTick() - tickstart) > PLL_TIMEOUT_VALUE)
 8001fd2:	f7ff facb 	bl	800156c <HAL_GetTick>
 8001fd6:	4602      	mov	r2, r0
 8001fd8:	693b      	ldr	r3, [r7, #16]
 8001fda:	1ad3      	subs	r3, r2, r3
 8001fdc:	2b02      	cmp	r3, #2
 8001fde:	d901      	bls.n	8001fe4 <HAL_RCC_OscConfig+0x428>
          {
            return HAL_TIMEOUT;
 8001fe0:	2303      	movs	r3, #3
 8001fe2:	e05c      	b.n	800209e <HAL_RCC_OscConfig+0x4e2>
        while (__HAL_RCC_GET_FLAG(RCC_FLAG_PLLRDY) == RESET)
 8001fe4:	4b11      	ldr	r3, [pc, #68]	@ (800202c <HAL_RCC_OscConfig+0x470>)
 8001fe6:	681b      	ldr	r3, [r3, #0]
 8001fe8:	f003 7300 	and.w	r3, r3, #33554432	@ 0x2000000
 8001fec:	2b00      	cmp	r3, #0
 8001fee:	d0f0      	beq.n	8001fd2 <HAL_RCC_OscConfig+0x416>
 8001ff0:	e054      	b.n	800209c <HAL_RCC_OscConfig+0x4e0>
        }
      }
      else
      {
        /* Disable the main PLL. */
        __HAL_RCC_PLL_DISABLE();
 8001ff2:	4b10      	ldr	r3, [pc, #64]	@ (8002034 <HAL_RCC_OscConfig+0x478>)
 8001ff4:	2200      	movs	r2, #0
 8001ff6:	601a      	str	r2, [r3, #0]

        /* Get Start Tick */
        tickstart = HAL_GetTick();
 8001ff8:	f7ff fab8 	bl	800156c <HAL_GetTick>
 8001ffc:	6138      	str	r0, [r7, #16]

        /* Wait till PLL is disabled */
        while (__HAL_RCC_GET_FLAG(RCC_FLAG_PLLRDY) != RESET)
 8001ffe:	e008      	b.n	8002012 <HAL_RCC_OscConfig+0x456>
        {
          if ((HAL_GetTick() - tickstart) > PLL_TIMEOUT_VALUE)
 8002000:	f7ff fab4 	bl	800156c <HAL_GetTick>
 8002004:	4602      	mov	r2, r0
 8002006:	693b      	ldr	r3, [r7, #16]
 8002008:	1ad3      	subs	r3, r2, r3
 800200a:	2b02      	cmp	r3, #2
 800200c:	d901      	bls.n	8002012 <HAL_RCC_OscConfig+0x456>
          {
            return HAL_TIMEOUT;
 800200e:	2303      	movs	r3, #3
 8002010:	e045      	b.n	800209e <HAL_RCC_OscConfig+0x4e2>
        while (__HAL_RCC_GET_FLAG(RCC_FLAG_PLLRDY) != RESET)
 8002012:	4b06      	ldr	r3, [pc, #24]	@ (800202c <HAL_RCC_OscConfig+0x470>)
 8002014:	681b      	ldr	r3, [r3, #0]
 8002016:	f003 7300 	and.w	r3, r3, #33554432	@ 0x2000000
 800201a:	2b00      	cmp	r3, #0
 800201c:	d1f0      	bne.n	8002000 <HAL_RCC_OscConfig+0x444>
 800201e:	e03d      	b.n	800209c <HAL_RCC_OscConfig+0x4e0>
      }
    }
    else
    {
      /* Check if there is a request to disable the PLL used as System clock source */
      if ((RCC_OscInitStruct->PLL.PLLState) == RCC_PLL_OFF)
 8002020:	687b      	ldr	r3, [r7, #4]
 8002022:	699b      	ldr	r3, [r3, #24]
 8002024:	2b01      	cmp	r3, #1
 8002026:	d107      	bne.n	8002038 <HAL_RCC_OscConfig+0x47c>
      {
        return HAL_ERROR;
 8002028:	2301      	movs	r3, #1
 800202a:	e038      	b.n	800209e <HAL_RCC_OscConfig+0x4e2>
 800202c:	40023800 	.word	0x40023800
 8002030:	40007000 	.word	0x40007000
 8002034:	42470060 	.word	0x42470060
      }
      else
      {
        /* Do not return HAL_ERROR if request repeats the current configuration */
        pll_config = RCC->PLLCFGR;
 8002038:	4b1b      	ldr	r3, [pc, #108]	@ (80020a8 <HAL_RCC_OscConfig+0x4ec>)
 800203a:	685b      	ldr	r3, [r3, #4]
 800203c:	60fb      	str	r3, [r7, #12]
            (READ_BIT(pll_config, RCC_PLLCFGR_PLLN) != (RCC_OscInitStruct->PLL.PLLN) << RCC_PLLCFGR_PLLN_Pos) ||
            (READ_BIT(pll_config, RCC_PLLCFGR_PLLP) != (((RCC_OscInitStruct->PLL.PLLP >> 1U) - 1U)) << RCC_PLLCFGR_PLLP_Pos) ||
            (READ_BIT(pll_config, RCC_PLLCFGR_PLLQ) != (RCC_OscInitStruct->PLL.PLLQ << RCC_PLLCFGR_PLLQ_Pos)) ||
            (READ_BIT(pll_config, RCC_PLLCFGR_PLLR) != (RCC_OscInitStruct->PLL.PLLR << RCC_PLLCFGR_PLLR_Pos)))
#else
        if (((RCC_OscInitStruct->PLL.PLLState) == RCC_PLL_OFF) ||
 800203e:	687b      	ldr	r3, [r7, #4]
 8002040:	699b      	ldr	r3, [r3, #24]
 8002042:	2b01      	cmp	r3, #1
 8002044:	d028      	beq.n	8002098 <HAL_RCC_OscConfig+0x4dc>
            (READ_BIT(pll_config, RCC_PLLCFGR_PLLSRC) != RCC_OscInitStruct->PLL.PLLSource) ||
 8002046:	68fb      	ldr	r3, [r7, #12]
 8002048:	f403 0280 	and.w	r2, r3, #4194304	@ 0x400000
 800204c:	687b      	ldr	r3, [r7, #4]
 800204e:	69db      	ldr	r3, [r3, #28]
        if (((RCC_OscInitStruct->PLL.PLLState) == RCC_PLL_OFF) ||
 8002050:	429a      	cmp	r2, r3
 8002052:	d121      	bne.n	8002098 <HAL_RCC_OscConfig+0x4dc>
            (READ_BIT(pll_config, RCC_PLLCFGR_PLLM) != (RCC_OscInitStruct->PLL.PLLM) << RCC_PLLCFGR_PLLM_Pos) ||
 8002054:	68fb      	ldr	r3, [r7, #12]
 8002056:	f003 023f 	and.w	r2, r3, #63	@ 0x3f
 800205a:	687b      	ldr	r3, [r7, #4]
 800205c:	6a1b      	ldr	r3, [r3, #32]
            (READ_BIT(pll_config, RCC_PLLCFGR_PLLSRC) != RCC_OscInitStruct->PLL.PLLSource) ||
 800205e:	429a      	cmp	r2, r3
 8002060:	d11a      	bne.n	8002098 <HAL_RCC_OscConfig+0x4dc>
            (READ_BIT(pll_config, RCC_PLLCFGR_PLLN) != (RCC_OscInitStruct->PLL.PLLN) << RCC_PLLCFGR_PLLN_Pos) ||
 8002062:	68fa      	ldr	r2, [r7, #12]
 8002064:	f647 73c0 	movw	r3, #32704	@ 0x7fc0
 8002068:	4013      	ands	r3, r2
 800206a:	687a      	ldr	r2, [r7, #4]
 800206c:	6a52      	ldr	r2, [r2, #36]	@ 0x24
 800206e:	0192      	lsls	r2, r2, #6
            (READ_BIT(pll_config, RCC_PLLCFGR_PLLM) != (RCC_OscInitStruct->PLL.PLLM) << RCC_PLLCFGR_PLLM_Pos) ||
 8002070:	4293      	cmp	r3, r2
 8002072:	d111      	bne.n	8002098 <HAL_RCC_OscConfig+0x4dc>
            (READ_BIT(pll_config, RCC_PLLCFGR_PLLP) != (((RCC_OscInitStruct->PLL.PLLP >> 1U) - 1U)) << RCC_PLLCFGR_PLLP_Pos) ||
 8002074:	68fb      	ldr	r3, [r7, #12]
 8002076:	f403 3240 	and.w	r2, r3, #196608	@ 0x30000
 800207a:	687b      	ldr	r3, [r7, #4]
 800207c:	6a9b      	ldr	r3, [r3, #40]	@ 0x28
 800207e:	085b      	lsrs	r3, r3, #1
 8002080:	3b01      	subs	r3, #1
 8002082:	041b      	lsls	r3, r3, #16
            (READ_BIT(pll_config, RCC_PLLCFGR_PLLN) != (RCC_OscInitStruct->PLL.PLLN) << RCC_PLLCFGR_PLLN_Pos) ||
 8002084:	429a      	cmp	r2, r3
 8002086:	d107      	bne.n	8002098 <HAL_RCC_OscConfig+0x4dc>
            (READ_BIT(pll_config, RCC_PLLCFGR_PLLQ) != (RCC_OscInitStruct->PLL.PLLQ << RCC_PLLCFGR_PLLQ_Pos)))
 8002088:	68fb      	ldr	r3, [r7, #12]
 800208a:	f003 6270 	and.w	r2, r3, #251658240	@ 0xf000000
 800208e:	687b      	ldr	r3, [r7, #4]
 8002090:	6adb      	ldr	r3, [r3, #44]	@ 0x2c
 8002092:	061b      	lsls	r3, r3, #24
            (READ_BIT(pll_config, RCC_PLLCFGR_PLLP) != (((RCC_OscInitStruct->PLL.PLLP >> 1U) - 1U)) << RCC_PLLCFGR_PLLP_Pos) ||
 8002094:	429a      	cmp	r2, r3
 8002096:	d001      	beq.n	800209c <HAL_RCC_OscConfig+0x4e0>
#endif /* RCC_PLLCFGR_PLLR */
        {
          return HAL_ERROR;
 8002098:	2301      	movs	r3, #1
 800209a:	e000      	b.n	800209e <HAL_RCC_OscConfig+0x4e2>
        }
      }
    }
  }
  return HAL_OK;
 800209c:	2300      	movs	r3, #0
}
 800209e:	4618      	mov	r0, r3
 80020a0:	3718      	adds	r7, #24
 80020a2:	46bd      	mov	sp, r7
 80020a4:	bd80      	pop	{r7, pc}
 80020a6:	bf00      	nop
 80020a8:	40023800 	.word	0x40023800

080020ac <HAL_RCC_ClockConfig>:
  *         HPRE[3:0] bits to ensure that HCLK not exceed the maximum allowed frequency
  *         (for more details refer to section above "Initialization/de-initialization functions")
  * @retval None
  */
HAL_StatusTypeDef HAL_RCC_ClockConfig(RCC_ClkInitTypeDef  *RCC_ClkInitStruct, uint32_t FLatency)
{
 80020ac:	b580      	push	{r7, lr}
 80020ae:	b084      	sub	sp, #16
 80020b0:	af00      	add	r7, sp, #0
 80020b2:	6078      	str	r0, [r7, #4]
 80020b4:	6039      	str	r1, [r7, #0]
  uint32_t tickstart;

  /* Check Null pointer */
  if (RCC_ClkInitStruct == NULL)
 80020b6:	687b      	ldr	r3, [r7, #4]
 80020b8:	2b00      	cmp	r3, #0
 80020ba:	d101      	bne.n	80020c0 <HAL_RCC_ClockConfig+0x14>
  {
    return HAL_ERROR;
 80020bc:	2301      	movs	r3, #1
 80020be:	e0cc      	b.n	800225a <HAL_RCC_ClockConfig+0x1ae>
  /* To correctly read data from FLASH memory, the number of wait states (LATENCY)
    must be correctly programmed according to the frequency of the CPU clock
    (HCLK) and the supply voltage of the device. */

  /* Increasing the number of wait states because of higher CPU frequency */
  if (FLatency > __HAL_FLASH_GET_LATENCY())
 80020c0:	4b68      	ldr	r3, [pc, #416]	@ (8002264 <HAL_RCC_ClockConfig+0x1b8>)
 80020c2:	681b      	ldr	r3, [r3, #0]
 80020c4:	f003 0307 	and.w	r3, r3, #7
 80020c8:	683a      	ldr	r2, [r7, #0]
 80020ca:	429a      	cmp	r2, r3
 80020cc:	d90c      	bls.n	80020e8 <HAL_RCC_ClockConfig+0x3c>
  {
    /* Program the new number of wait states to the LATENCY bits in the FLASH_ACR register */
    __HAL_FLASH_SET_LATENCY(FLatency);
 80020ce:	4b65      	ldr	r3, [pc, #404]	@ (8002264 <HAL_RCC_ClockConfig+0x1b8>)
 80020d0:	683a      	ldr	r2, [r7, #0]
 80020d2:	b2d2      	uxtb	r2, r2
 80020d4:	701a      	strb	r2, [r3, #0]

    /* Check that the new number of wait states is taken into account to access the Flash
    memory by reading the FLASH_ACR register */
    if (__HAL_FLASH_GET_LATENCY() != FLatency)
 80020d6:	4b63      	ldr	r3, [pc, #396]	@ (8002264 <HAL_RCC_ClockConfig+0x1b8>)
 80020d8:	681b      	ldr	r3, [r3, #0]
 80020da:	f003 0307 	and.w	r3, r3, #7
 80020de:	683a      	ldr	r2, [r7, #0]
 80020e0:	429a      	cmp	r2, r3
 80020e2:	d001      	beq.n	80020e8 <HAL_RCC_ClockConfig+0x3c>
    {
      return HAL_ERROR;
 80020e4:	2301      	movs	r3, #1
 80020e6:	e0b8      	b.n	800225a <HAL_RCC_ClockConfig+0x1ae>
    }
  }

  /*-------------------------- HCLK Configuration --------------------------*/
  if (((RCC_ClkInitStruct->ClockType) & RCC_CLOCKTYPE_HCLK) == RCC_CLOCKTYPE_HCLK)
 80020e8:	687b      	ldr	r3, [r7, #4]
 80020ea:	681b      	ldr	r3, [r3, #0]
 80020ec:	f003 0302 	and.w	r3, r3, #2
 80020f0:	2b00      	cmp	r3, #0
 80020f2:	d020      	beq.n	8002136 <HAL_RCC_ClockConfig+0x8a>
  {
    /* Set the highest APBx dividers in order to ensure that we do not go through
       a non-spec phase whatever we decrease or increase HCLK. */
    if (((RCC_ClkInitStruct->ClockType) & RCC_CLOCKTYPE_PCLK1) == RCC_CLOCKTYPE_PCLK1)
 80020f4:	687b      	ldr	r3, [r7, #4]
 80020f6:	681b      	ldr	r3, [r3, #0]
 80020f8:	f003 0304 	and.w	r3, r3, #4
 80020fc:	2b00      	cmp	r3, #0
 80020fe:	d005      	beq.n	800210c <HAL_RCC_ClockConfig+0x60>
    {
      MODIFY_REG(RCC->CFGR, RCC_CFGR_PPRE1, RCC_HCLK_DIV16);
 8002100:	4b59      	ldr	r3, [pc, #356]	@ (8002268 <HAL_RCC_ClockConfig+0x1bc>)
 8002102:	689b      	ldr	r3, [r3, #8]
 8002104:	4a58      	ldr	r2, [pc, #352]	@ (8002268 <HAL_RCC_ClockConfig+0x1bc>)
 8002106:	f443 53e0 	orr.w	r3, r3, #7168	@ 0x1c00
 800210a:	6093      	str	r3, [r2, #8]
    }

    if (((RCC_ClkInitStruct->ClockType) & RCC_CLOCKTYPE_PCLK2) == RCC_CLOCKTYPE_PCLK2)
 800210c:	687b      	ldr	r3, [r7, #4]
 800210e:	681b      	ldr	r3, [r3, #0]
 8002110:	f003 0308 	and.w	r3, r3, #8
 8002114:	2b00      	cmp	r3, #0
 8002116:	d005      	beq.n	8002124 <HAL_RCC_ClockConfig+0x78>
    {
      MODIFY_REG(RCC->CFGR, RCC_CFGR_PPRE2, (RCC_HCLK_DIV16 << 3));
 8002118:	4b53      	ldr	r3, [pc, #332]	@ (8002268 <HAL_RCC_ClockConfig+0x1bc>)
 800211a:	689b      	ldr	r3, [r3, #8]
 800211c:	4a52      	ldr	r2, [pc, #328]	@ (8002268 <HAL_RCC_ClockConfig+0x1bc>)
 800211e:	f443 4360 	orr.w	r3, r3, #57344	@ 0xe000
 8002122:	6093      	str	r3, [r2, #8]
    }

    assert_param(IS_RCC_HCLK(RCC_ClkInitStruct->AHBCLKDivider));
    MODIFY_REG(RCC->CFGR, RCC_CFGR_HPRE, RCC_ClkInitStruct->AHBCLKDivider);
 8002124:	4b50      	ldr	r3, [pc, #320]	@ (8002268 <HAL_RCC_ClockConfig+0x1bc>)
 8002126:	689b      	ldr	r3, [r3, #8]
 8002128:	f023 02f0 	bic.w	r2, r3, #240	@ 0xf0
 800212c:	687b      	ldr	r3, [r7, #4]
 800212e:	689b      	ldr	r3, [r3, #8]
 8002130:	494d      	ldr	r1, [pc, #308]	@ (8002268 <HAL_RCC_ClockConfig+0x1bc>)
 8002132:	4313      	orrs	r3, r2
 8002134:	608b      	str	r3, [r1, #8]
  }

  /*------------------------- SYSCLK Configuration ---------------------------*/
  if (((RCC_ClkInitStruct->ClockType) & RCC_CLOCKTYPE_SYSCLK) == RCC_CLOCKTYPE_SYSCLK)
 8002136:	687b      	ldr	r3, [r7, #4]
 8002138:	681b      	ldr	r3, [r3, #0]
 800213a:	f003 0301 	and.w	r3, r3, #1
 800213e:	2b00      	cmp	r3, #0
 8002140:	d044      	beq.n	80021cc <HAL_RCC_ClockConfig+0x120>
  {
    assert_param(IS_RCC_SYSCLKSOURCE(RCC_ClkInitStruct->SYSCLKSource));

    /* HSE is selected as System Clock Source */
    if (RCC_ClkInitStruct->SYSCLKSource == RCC_SYSCLKSOURCE_HSE)
 8002142:	687b      	ldr	r3, [r7, #4]
 8002144:	685b      	ldr	r3, [r3, #4]
 8002146:	2b01      	cmp	r3, #1
 8002148:	d107      	bne.n	800215a <HAL_RCC_ClockConfig+0xae>
    {
      /* Check the HSE ready flag */
      if (__HAL_RCC_GET_FLAG(RCC_FLAG_HSERDY) == RESET)
 800214a:	4b47      	ldr	r3, [pc, #284]	@ (8002268 <HAL_RCC_ClockConfig+0x1bc>)
 800214c:	681b      	ldr	r3, [r3, #0]
 800214e:	f403 3300 	and.w	r3, r3, #131072	@ 0x20000
 8002152:	2b00      	cmp	r3, #0
 8002154:	d119      	bne.n	800218a <HAL_RCC_ClockConfig+0xde>
      {
        return HAL_ERROR;
 8002156:	2301      	movs	r3, #1
 8002158:	e07f      	b.n	800225a <HAL_RCC_ClockConfig+0x1ae>
      }
    }
    /* PLL is selected as System Clock Source */
    else if ((RCC_ClkInitStruct->SYSCLKSource == RCC_SYSCLKSOURCE_PLLCLK)   ||
 800215a:	687b      	ldr	r3, [r7, #4]
 800215c:	685b      	ldr	r3, [r3, #4]
 800215e:	2b02      	cmp	r3, #2
 8002160:	d003      	beq.n	800216a <HAL_RCC_ClockConfig+0xbe>
             (RCC_ClkInitStruct->SYSCLKSource == RCC_SYSCLKSOURCE_PLLRCLK))
 8002162:	687b      	ldr	r3, [r7, #4]
 8002164:	685b      	ldr	r3, [r3, #4]
    else if ((RCC_ClkInitStruct->SYSCLKSource == RCC_SYSCLKSOURCE_PLLCLK)   ||
 8002166:	2b03      	cmp	r3, #3
 8002168:	d107      	bne.n	800217a <HAL_RCC_ClockConfig+0xce>
    {
      /* Check the PLL ready flag */
      if (__HAL_RCC_GET_FLAG(RCC_FLAG_PLLRDY) == RESET)
 800216a:	4b3f      	ldr	r3, [pc, #252]	@ (8002268 <HAL_RCC_ClockConfig+0x1bc>)
 800216c:	681b      	ldr	r3, [r3, #0]
 800216e:	f003 7300 	and.w	r3, r3, #33554432	@ 0x2000000
 8002172:	2b00      	cmp	r3, #0
 8002174:	d109      	bne.n	800218a <HAL_RCC_ClockConfig+0xde>
      {
        return HAL_ERROR;
 8002176:	2301      	movs	r3, #1
 8002178:	e06f      	b.n	800225a <HAL_RCC_ClockConfig+0x1ae>
    }
    /* HSI is selected as System Clock Source */
    else
    {
      /* Check the HSI ready flag */
      if (__HAL_RCC_GET_FLAG(RCC_FLAG_HSIRDY) == RESET)
 800217a:	4b3b      	ldr	r3, [pc, #236]	@ (8002268 <HAL_RCC_ClockConfig+0x1bc>)
 800217c:	681b      	ldr	r3, [r3, #0]
 800217e:	f003 0302 	and.w	r3, r3, #2
 8002182:	2b00      	cmp	r3, #0
 8002184:	d101      	bne.n	800218a <HAL_RCC_ClockConfig+0xde>
      {
        return HAL_ERROR;
 8002186:	2301      	movs	r3, #1
 8002188:	e067      	b.n	800225a <HAL_RCC_ClockConfig+0x1ae>
      }
    }

    __HAL_RCC_SYSCLK_CONFIG(RCC_ClkInitStruct->SYSCLKSource);
 800218a:	4b37      	ldr	r3, [pc, #220]	@ (8002268 <HAL_RCC_ClockConfig+0x1bc>)
 800218c:	689b      	ldr	r3, [r3, #8]
 800218e:	f023 0203 	bic.w	r2, r3, #3
 8002192:	687b      	ldr	r3, [r7, #4]
 8002194:	685b      	ldr	r3, [r3, #4]
 8002196:	4934      	ldr	r1, [pc, #208]	@ (8002268 <HAL_RCC_ClockConfig+0x1bc>)
 8002198:	4313      	orrs	r3, r2
 800219a:	608b      	str	r3, [r1, #8]

    /* Get Start Tick */
    tickstart = HAL_GetTick();
 800219c:	f7ff f9e6 	bl	800156c <HAL_GetTick>
 80021a0:	60f8      	str	r0, [r7, #12]

    while (__HAL_RCC_GET_SYSCLK_SOURCE() != (RCC_ClkInitStruct->SYSCLKSource << RCC_CFGR_SWS_Pos))
 80021a2:	e00a      	b.n	80021ba <HAL_RCC_ClockConfig+0x10e>
    {
      if ((HAL_GetTick() - tickstart) > CLOCKSWITCH_TIMEOUT_VALUE)
 80021a4:	f7ff f9e2 	bl	800156c <HAL_GetTick>
 80021a8:	4602      	mov	r2, r0
 80021aa:	68fb      	ldr	r3, [r7, #12]
 80021ac:	1ad3      	subs	r3, r2, r3
 80021ae:	f241 3288 	movw	r2, #5000	@ 0x1388
 80021b2:	4293      	cmp	r3, r2
 80021b4:	d901      	bls.n	80021ba <HAL_RCC_ClockConfig+0x10e>
      {
        return HAL_TIMEOUT;
 80021b6:	2303      	movs	r3, #3
 80021b8:	e04f      	b.n	800225a <HAL_RCC_ClockConfig+0x1ae>
    while (__HAL_RCC_GET_SYSCLK_SOURCE() != (RCC_ClkInitStruct->SYSCLKSource << RCC_CFGR_SWS_Pos))
 80021ba:	4b2b      	ldr	r3, [pc, #172]	@ (8002268 <HAL_RCC_ClockConfig+0x1bc>)
 80021bc:	689b      	ldr	r3, [r3, #8]
 80021be:	f003 020c 	and.w	r2, r3, #12
 80021c2:	687b      	ldr	r3, [r7, #4]
 80021c4:	685b      	ldr	r3, [r3, #4]
 80021c6:	009b      	lsls	r3, r3, #2
 80021c8:	429a      	cmp	r2, r3
 80021ca:	d1eb      	bne.n	80021a4 <HAL_RCC_ClockConfig+0xf8>
      }
    }
  }

  /* Decreasing the number of wait states because of lower CPU frequency */
  if (FLatency < __HAL_FLASH_GET_LATENCY())
 80021cc:	4b25      	ldr	r3, [pc, #148]	@ (8002264 <HAL_RCC_ClockConfig+0x1b8>)
 80021ce:	681b      	ldr	r3, [r3, #0]
 80021d0:	f003 0307 	and.w	r3, r3, #7
 80021d4:	683a      	ldr	r2, [r7, #0]
 80021d6:	429a      	cmp	r2, r3
 80021d8:	d20c      	bcs.n	80021f4 <HAL_RCC_ClockConfig+0x148>
  {
    /* Program the new number of wait states to the LATENCY bits in the FLASH_ACR register */
    __HAL_FLASH_SET_LATENCY(FLatency);
 80021da:	4b22      	ldr	r3, [pc, #136]	@ (8002264 <HAL_RCC_ClockConfig+0x1b8>)
 80021dc:	683a      	ldr	r2, [r7, #0]
 80021de:	b2d2      	uxtb	r2, r2
 80021e0:	701a      	strb	r2, [r3, #0]

    /* Check that the new number of wait states is taken into account to access the Flash
    memory by reading the FLASH_ACR register */
    if (__HAL_FLASH_GET_LATENCY() != FLatency)
 80021e2:	4b20      	ldr	r3, [pc, #128]	@ (8002264 <HAL_RCC_ClockConfig+0x1b8>)
 80021e4:	681b      	ldr	r3, [r3, #0]
 80021e6:	f003 0307 	and.w	r3, r3, #7
 80021ea:	683a      	ldr	r2, [r7, #0]
 80021ec:	429a      	cmp	r2, r3
 80021ee:	d001      	beq.n	80021f4 <HAL_RCC_ClockConfig+0x148>
    {
      return HAL_ERROR;
 80021f0:	2301      	movs	r3, #1
 80021f2:	e032      	b.n	800225a <HAL_RCC_ClockConfig+0x1ae>
    }
  }

  /*-------------------------- PCLK1 Configuration ---------------------------*/
  if (((RCC_ClkInitStruct->ClockType) & RCC_CLOCKTYPE_PCLK1) == RCC_CLOCKTYPE_PCLK1)
 80021f4:	687b      	ldr	r3, [r7, #4]
 80021f6:	681b      	ldr	r3, [r3, #0]
 80021f8:	f003 0304 	and.w	r3, r3, #4
 80021fc:	2b00      	cmp	r3, #0
 80021fe:	d008      	beq.n	8002212 <HAL_RCC_ClockConfig+0x166>
  {
    assert_param(IS_RCC_PCLK(RCC_ClkInitStruct->APB1CLKDivider));
    MODIFY_REG(RCC->CFGR, RCC_CFGR_PPRE1, RCC_ClkInitStruct->APB1CLKDivider);
 8002200:	4b19      	ldr	r3, [pc, #100]	@ (8002268 <HAL_RCC_ClockConfig+0x1bc>)
 8002202:	689b      	ldr	r3, [r3, #8]
 8002204:	f423 52e0 	bic.w	r2, r3, #7168	@ 0x1c00
 8002208:	687b      	ldr	r3, [r7, #4]
 800220a:	68db      	ldr	r3, [r3, #12]
 800220c:	4916      	ldr	r1, [pc, #88]	@ (8002268 <HAL_RCC_ClockConfig+0x1bc>)
 800220e:	4313      	orrs	r3, r2
 8002210:	608b      	str	r3, [r1, #8]
  }

  /*-------------------------- PCLK2 Configuration ---------------------------*/
  if (((RCC_ClkInitStruct->ClockType) & RCC_CLOCKTYPE_PCLK2) == RCC_CLOCKTYPE_PCLK2)
 8002212:	687b      	ldr	r3, [r7, #4]
 8002214:	681b      	ldr	r3, [r3, #0]
 8002216:	f003 0308 	and.w	r3, r3, #8
 800221a:	2b00      	cmp	r3, #0
 800221c:	d009      	beq.n	8002232 <HAL_RCC_ClockConfig+0x186>
  {
    assert_param(IS_RCC_PCLK(RCC_ClkInitStruct->APB2CLKDivider));
    MODIFY_REG(RCC->CFGR, RCC_CFGR_PPRE2, ((RCC_ClkInitStruct->APB2CLKDivider) << 3U));
 800221e:	4b12      	ldr	r3, [pc, #72]	@ (8002268 <HAL_RCC_ClockConfig+0x1bc>)
 8002220:	689b      	ldr	r3, [r3, #8]
 8002222:	f423 4260 	bic.w	r2, r3, #57344	@ 0xe000
 8002226:	687b      	ldr	r3, [r7, #4]
 8002228:	691b      	ldr	r3, [r3, #16]
 800222a:	00db      	lsls	r3, r3, #3
 800222c:	490e      	ldr	r1, [pc, #56]	@ (8002268 <HAL_RCC_ClockConfig+0x1bc>)
 800222e:	4313      	orrs	r3, r2
 8002230:	608b      	str	r3, [r1, #8]
  }

  /* Update the SystemCoreClock global variable */
  SystemCoreClock = HAL_RCC_GetSysClockFreq() >> AHBPrescTable[(RCC->CFGR & RCC_CFGR_HPRE) >> RCC_CFGR_HPRE_Pos];
 8002232:	f000 f821 	bl	8002278 <HAL_RCC_GetSysClockFreq>
 8002236:	4602      	mov	r2, r0
 8002238:	4b0b      	ldr	r3, [pc, #44]	@ (8002268 <HAL_RCC_ClockConfig+0x1bc>)
 800223a:	689b      	ldr	r3, [r3, #8]
 800223c:	091b      	lsrs	r3, r3, #4
 800223e:	f003 030f 	and.w	r3, r3, #15
 8002242:	490a      	ldr	r1, [pc, #40]	@ (800226c <HAL_RCC_ClockConfig+0x1c0>)
 8002244:	5ccb      	ldrb	r3, [r1, r3]
 8002246:	fa22 f303 	lsr.w	r3, r2, r3
 800224a:	4a09      	ldr	r2, [pc, #36]	@ (8002270 <HAL_RCC_ClockConfig+0x1c4>)
 800224c:	6013      	str	r3, [r2, #0]

  /* Configure the source of time base considering new system clocks settings */
  HAL_InitTick(uwTickPrio);
 800224e:	4b09      	ldr	r3, [pc, #36]	@ (8002274 <HAL_RCC_ClockConfig+0x1c8>)
 8002250:	681b      	ldr	r3, [r3, #0]
 8002252:	4618      	mov	r0, r3
 8002254:	f7ff f946 	bl	80014e4 <HAL_InitTick>

  return HAL_OK;
 8002258:	2300      	movs	r3, #0
}
 800225a:	4618      	mov	r0, r3
 800225c:	3710      	adds	r7, #16
 800225e:	46bd      	mov	sp, r7
 8002260:	bd80      	pop	{r7, pc}
 8002262:	bf00      	nop
 8002264:	40023c00 	.word	0x40023c00
 8002268:	40023800 	.word	0x40023800
 800226c:	08002de4 	.word	0x08002de4
 8002270:	20000110 	.word	0x20000110
 8002274:	20000114 	.word	0x20000114

08002278 <HAL_RCC_GetSysClockFreq>:
  *
  *
  * @retval SYSCLK frequency
  */
__weak uint32_t HAL_RCC_GetSysClockFreq(void)
{
 8002278:	e92d 4fb0 	stmdb	sp!, {r4, r5, r7, r8, r9, sl, fp, lr}
 800227c:	b090      	sub	sp, #64	@ 0x40
 800227e:	af00      	add	r7, sp, #0
  uint32_t pllm = 0U;
 8002280:	2300      	movs	r3, #0
 8002282:	637b      	str	r3, [r7, #52]	@ 0x34
  uint32_t pllvco = 0U;
 8002284:	2300      	movs	r3, #0
 8002286:	63fb      	str	r3, [r7, #60]	@ 0x3c
  uint32_t pllp = 0U;
 8002288:	2300      	movs	r3, #0
 800228a:	633b      	str	r3, [r7, #48]	@ 0x30
  uint32_t sysclockfreq = 0U;
 800228c:	2300      	movs	r3, #0
 800228e:	63bb      	str	r3, [r7, #56]	@ 0x38

  /* Get SYSCLK source -------------------------------------------------------*/
  switch (RCC->CFGR & RCC_CFGR_SWS)
 8002290:	4b59      	ldr	r3, [pc, #356]	@ (80023f8 <HAL_RCC_GetSysClockFreq+0x180>)
 8002292:	689b      	ldr	r3, [r3, #8]
 8002294:	f003 030c 	and.w	r3, r3, #12
 8002298:	2b08      	cmp	r3, #8
 800229a:	d00d      	beq.n	80022b8 <HAL_RCC_GetSysClockFreq+0x40>
 800229c:	2b08      	cmp	r3, #8
 800229e:	f200 80a1 	bhi.w	80023e4 <HAL_RCC_GetSysClockFreq+0x16c>
 80022a2:	2b00      	cmp	r3, #0
 80022a4:	d002      	beq.n	80022ac <HAL_RCC_GetSysClockFreq+0x34>
 80022a6:	2b04      	cmp	r3, #4
 80022a8:	d003      	beq.n	80022b2 <HAL_RCC_GetSysClockFreq+0x3a>
 80022aa:	e09b      	b.n	80023e4 <HAL_RCC_GetSysClockFreq+0x16c>
  {
    case RCC_CFGR_SWS_HSI:  /* HSI used as system clock source */
    {
      sysclockfreq = HSI_VALUE;
 80022ac:	4b53      	ldr	r3, [pc, #332]	@ (80023fc <HAL_RCC_GetSysClockFreq+0x184>)
 80022ae:	63bb      	str	r3, [r7, #56]	@ 0x38
      break;
 80022b0:	e09b      	b.n	80023ea <HAL_RCC_GetSysClockFreq+0x172>
    }
    case RCC_CFGR_SWS_HSE:  /* HSE used as system clock  source */
    {
      sysclockfreq = HSE_VALUE;
 80022b2:	4b53      	ldr	r3, [pc, #332]	@ (8002400 <HAL_RCC_GetSysClockFreq+0x188>)
 80022b4:	63bb      	str	r3, [r7, #56]	@ 0x38
      break;
 80022b6:	e098      	b.n	80023ea <HAL_RCC_GetSysClockFreq+0x172>
    }
    case RCC_CFGR_SWS_PLL:  /* PLL used as system clock  source */
    {
      /* PLL_VCO = (HSE_VALUE or HSI_VALUE / PLLM) * PLLN
      SYSCLK = PLL_VCO / PLLP */
      pllm = RCC->PLLCFGR & RCC_PLLCFGR_PLLM;
 80022b8:	4b4f      	ldr	r3, [pc, #316]	@ (80023f8 <HAL_RCC_GetSysClockFreq+0x180>)
 80022ba:	685b      	ldr	r3, [r3, #4]
 80022bc:	f003 033f 	and.w	r3, r3, #63	@ 0x3f
 80022c0:	637b      	str	r3, [r7, #52]	@ 0x34
      if (__HAL_RCC_GET_PLL_OSCSOURCE() != RCC_PLLSOURCE_HSI)
 80022c2:	4b4d      	ldr	r3, [pc, #308]	@ (80023f8 <HAL_RCC_GetSysClockFreq+0x180>)
 80022c4:	685b      	ldr	r3, [r3, #4]
 80022c6:	f403 0380 	and.w	r3, r3, #4194304	@ 0x400000
 80022ca:	2b00      	cmp	r3, #0
 80022cc:	d028      	beq.n	8002320 <HAL_RCC_GetSysClockFreq+0xa8>
      {
        /* HSE used as PLL clock source */
        pllvco = (uint32_t)((((uint64_t) HSE_VALUE * ((uint64_t)((RCC->PLLCFGR & RCC_PLLCFGR_PLLN) >> RCC_PLLCFGR_PLLN_Pos)))) / (uint64_t)pllm);
 80022ce:	4b4a      	ldr	r3, [pc, #296]	@ (80023f8 <HAL_RCC_GetSysClockFreq+0x180>)
 80022d0:	685b      	ldr	r3, [r3, #4]
 80022d2:	099b      	lsrs	r3, r3, #6
 80022d4:	2200      	movs	r2, #0
 80022d6:	623b      	str	r3, [r7, #32]
 80022d8:	627a      	str	r2, [r7, #36]	@ 0x24
 80022da:	6a3b      	ldr	r3, [r7, #32]
 80022dc:	f3c3 0008 	ubfx	r0, r3, #0, #9
 80022e0:	2100      	movs	r1, #0
 80022e2:	4b47      	ldr	r3, [pc, #284]	@ (8002400 <HAL_RCC_GetSysClockFreq+0x188>)
 80022e4:	fb03 f201 	mul.w	r2, r3, r1
 80022e8:	2300      	movs	r3, #0
 80022ea:	fb00 f303 	mul.w	r3, r0, r3
 80022ee:	4413      	add	r3, r2
 80022f0:	4a43      	ldr	r2, [pc, #268]	@ (8002400 <HAL_RCC_GetSysClockFreq+0x188>)
 80022f2:	fba0 1202 	umull	r1, r2, r0, r2
 80022f6:	62fa      	str	r2, [r7, #44]	@ 0x2c
 80022f8:	460a      	mov	r2, r1
 80022fa:	62ba      	str	r2, [r7, #40]	@ 0x28
 80022fc:	6afa      	ldr	r2, [r7, #44]	@ 0x2c
 80022fe:	4413      	add	r3, r2
 8002300:	62fb      	str	r3, [r7, #44]	@ 0x2c
 8002302:	6b7b      	ldr	r3, [r7, #52]	@ 0x34
 8002304:	2200      	movs	r2, #0
 8002306:	61bb      	str	r3, [r7, #24]
 8002308:	61fa      	str	r2, [r7, #28]
 800230a:	e9d7 2306 	ldrd	r2, r3, [r7, #24]
 800230e:	e9d7 010a 	ldrd	r0, r1, [r7, #40]	@ 0x28
 8002312:	f7fd ffb5 	bl	8000280 <__aeabi_uldivmod>
 8002316:	4602      	mov	r2, r0
 8002318:	460b      	mov	r3, r1
 800231a:	4613      	mov	r3, r2
 800231c:	63fb      	str	r3, [r7, #60]	@ 0x3c
 800231e:	e053      	b.n	80023c8 <HAL_RCC_GetSysClockFreq+0x150>
      }
      else
      {
        /* HSI used as PLL clock source */
        pllvco = (uint32_t)((((uint64_t) HSI_VALUE * ((uint64_t)((RCC->PLLCFGR & RCC_PLLCFGR_PLLN) >> RCC_PLLCFGR_PLLN_Pos)))) / (uint64_t)pllm);
 8002320:	4b35      	ldr	r3, [pc, #212]	@ (80023f8 <HAL_RCC_GetSysClockFreq+0x180>)
 8002322:	685b      	ldr	r3, [r3, #4]
 8002324:	099b      	lsrs	r3, r3, #6
 8002326:	2200      	movs	r2, #0
 8002328:	613b      	str	r3, [r7, #16]
 800232a:	617a      	str	r2, [r7, #20]
 800232c:	693b      	ldr	r3, [r7, #16]
 800232e:	f3c3 0a08 	ubfx	sl, r3, #0, #9
 8002332:	f04f 0b00 	mov.w	fp, #0
 8002336:	4652      	mov	r2, sl
 8002338:	465b      	mov	r3, fp
 800233a:	f04f 0000 	mov.w	r0, #0
 800233e:	f04f 0100 	mov.w	r1, #0
 8002342:	0159      	lsls	r1, r3, #5
 8002344:	ea41 61d2 	orr.w	r1, r1, r2, lsr #27
 8002348:	0150      	lsls	r0, r2, #5
 800234a:	4602      	mov	r2, r0
 800234c:	460b      	mov	r3, r1
 800234e:	ebb2 080a 	subs.w	r8, r2, sl
 8002352:	eb63 090b 	sbc.w	r9, r3, fp
 8002356:	f04f 0200 	mov.w	r2, #0
 800235a:	f04f 0300 	mov.w	r3, #0
 800235e:	ea4f 1389 	mov.w	r3, r9, lsl #6
 8002362:	ea43 6398 	orr.w	r3, r3, r8, lsr #26
 8002366:	ea4f 1288 	mov.w	r2, r8, lsl #6
 800236a:	ebb2 0408 	subs.w	r4, r2, r8
 800236e:	eb63 0509 	sbc.w	r5, r3, r9
 8002372:	f04f 0200 	mov.w	r2, #0
 8002376:	f04f 0300 	mov.w	r3, #0
 800237a:	00eb      	lsls	r3, r5, #3
 800237c:	ea43 7354 	orr.w	r3, r3, r4, lsr #29
 8002380:	00e2      	lsls	r2, r4, #3
 8002382:	4614      	mov	r4, r2
 8002384:	461d      	mov	r5, r3
 8002386:	eb14 030a 	adds.w	r3, r4, sl
 800238a:	603b      	str	r3, [r7, #0]
 800238c:	eb45 030b 	adc.w	r3, r5, fp
 8002390:	607b      	str	r3, [r7, #4]
 8002392:	f04f 0200 	mov.w	r2, #0
 8002396:	f04f 0300 	mov.w	r3, #0
 800239a:	e9d7 4500 	ldrd	r4, r5, [r7]
 800239e:	4629      	mov	r1, r5
 80023a0:	028b      	lsls	r3, r1, #10
 80023a2:	4621      	mov	r1, r4
 80023a4:	ea43 5391 	orr.w	r3, r3, r1, lsr #22
 80023a8:	4621      	mov	r1, r4
 80023aa:	028a      	lsls	r2, r1, #10
 80023ac:	4610      	mov	r0, r2
 80023ae:	4619      	mov	r1, r3
 80023b0:	6b7b      	ldr	r3, [r7, #52]	@ 0x34
 80023b2:	2200      	movs	r2, #0
 80023b4:	60bb      	str	r3, [r7, #8]
 80023b6:	60fa      	str	r2, [r7, #12]
 80023b8:	e9d7 2302 	ldrd	r2, r3, [r7, #8]
 80023bc:	f7fd ff60 	bl	8000280 <__aeabi_uldivmod>
 80023c0:	4602      	mov	r2, r0
 80023c2:	460b      	mov	r3, r1
 80023c4:	4613      	mov	r3, r2
 80023c6:	63fb      	str	r3, [r7, #60]	@ 0x3c
      }
      pllp = ((((RCC->PLLCFGR & RCC_PLLCFGR_PLLP) >> RCC_PLLCFGR_PLLP_Pos) + 1U) * 2U);
 80023c8:	4b0b      	ldr	r3, [pc, #44]	@ (80023f8 <HAL_RCC_GetSysClockFreq+0x180>)
 80023ca:	685b      	ldr	r3, [r3, #4]
 80023cc:	0c1b      	lsrs	r3, r3, #16
 80023ce:	f003 0303 	and.w	r3, r3, #3
 80023d2:	3301      	adds	r3, #1
 80023d4:	005b      	lsls	r3, r3, #1
 80023d6:	633b      	str	r3, [r7, #48]	@ 0x30

      sysclockfreq = pllvco / pllp;
 80023d8:	6bfa      	ldr	r2, [r7, #60]	@ 0x3c
 80023da:	6b3b      	ldr	r3, [r7, #48]	@ 0x30
 80023dc:	fbb2 f3f3 	udiv	r3, r2, r3
 80023e0:	63bb      	str	r3, [r7, #56]	@ 0x38
      break;
 80023e2:	e002      	b.n	80023ea <HAL_RCC_GetSysClockFreq+0x172>
    }
    default:
    {
      sysclockfreq = HSI_VALUE;
 80023e4:	4b05      	ldr	r3, [pc, #20]	@ (80023fc <HAL_RCC_GetSysClockFreq+0x184>)
 80023e6:	63bb      	str	r3, [r7, #56]	@ 0x38
      break;
 80023e8:	bf00      	nop
    }
  }
  return sysclockfreq;
 80023ea:	6bbb      	ldr	r3, [r7, #56]	@ 0x38
}
 80023ec:	4618      	mov	r0, r3
 80023ee:	3740      	adds	r7, #64	@ 0x40
 80023f0:	46bd      	mov	sp, r7
 80023f2:	e8bd 8fb0 	ldmia.w	sp!, {r4, r5, r7, r8, r9, sl, fp, pc}
 80023f6:	bf00      	nop
 80023f8:	40023800 	.word	0x40023800
 80023fc:	00f42400 	.word	0x00f42400
 8002400:	017d7840 	.word	0x017d7840

08002404 <siprintf>:
 8002404:	b40e      	push	{r1, r2, r3}
 8002406:	b500      	push	{lr}
 8002408:	b09c      	sub	sp, #112	@ 0x70
 800240a:	ab1d      	add	r3, sp, #116	@ 0x74
 800240c:	9002      	str	r0, [sp, #8]
 800240e:	9006      	str	r0, [sp, #24]
 8002410:	f06f 4100 	mvn.w	r1, #2147483648	@ 0x80000000
 8002414:	4809      	ldr	r0, [pc, #36]	@ (800243c <siprintf+0x38>)
 8002416:	9107      	str	r1, [sp, #28]
 8002418:	9104      	str	r1, [sp, #16]
 800241a:	4909      	ldr	r1, [pc, #36]	@ (8002440 <siprintf+0x3c>)
 800241c:	f853 2b04 	ldr.w	r2, [r3], #4
 8002420:	9105      	str	r1, [sp, #20]
 8002422:	6800      	ldr	r0, [r0, #0]
 8002424:	9301      	str	r3, [sp, #4]
 8002426:	a902      	add	r1, sp, #8
 8002428:	f000 f8b8 	bl	800259c <_svfiprintf_r>
 800242c:	9b02      	ldr	r3, [sp, #8]
 800242e:	2200      	movs	r2, #0
 8002430:	701a      	strb	r2, [r3, #0]
 8002432:	b01c      	add	sp, #112	@ 0x70
 8002434:	f85d eb04 	ldr.w	lr, [sp], #4
 8002438:	b003      	add	sp, #12
 800243a:	4770      	bx	lr
 800243c:	2000011c 	.word	0x2000011c
 8002440:	ffff0208 	.word	0xffff0208

08002444 <strncpy>:
 8002444:	b510      	push	{r4, lr}
 8002446:	3901      	subs	r1, #1
 8002448:	4603      	mov	r3, r0
 800244a:	b132      	cbz	r2, 800245a <strncpy+0x16>
 800244c:	f811 4f01 	ldrb.w	r4, [r1, #1]!
 8002450:	f803 4b01 	strb.w	r4, [r3], #1
 8002454:	3a01      	subs	r2, #1
 8002456:	2c00      	cmp	r4, #0
 8002458:	d1f7      	bne.n	800244a <strncpy+0x6>
 800245a:	441a      	add	r2, r3
 800245c:	2100      	movs	r1, #0
 800245e:	4293      	cmp	r3, r2
 8002460:	d100      	bne.n	8002464 <strncpy+0x20>
 8002462:	bd10      	pop	{r4, pc}
 8002464:	f803 1b01 	strb.w	r1, [r3], #1
 8002468:	e7f9      	b.n	800245e <strncpy+0x1a>

0800246a <memset>:
 800246a:	4402      	add	r2, r0
 800246c:	4603      	mov	r3, r0
 800246e:	4293      	cmp	r3, r2
 8002470:	d100      	bne.n	8002474 <memset+0xa>
 8002472:	4770      	bx	lr
 8002474:	f803 1b01 	strb.w	r1, [r3], #1
 8002478:	e7f9      	b.n	800246e <memset+0x4>
	...

0800247c <__errno>:
 800247c:	4b01      	ldr	r3, [pc, #4]	@ (8002484 <__errno+0x8>)
 800247e:	6818      	ldr	r0, [r3, #0]
 8002480:	4770      	bx	lr
 8002482:	bf00      	nop
 8002484:	2000011c 	.word	0x2000011c

08002488 <__libc_init_array>:
 8002488:	b570      	push	{r4, r5, r6, lr}
 800248a:	4d0d      	ldr	r5, [pc, #52]	@ (80024c0 <__libc_init_array+0x38>)
 800248c:	4c0d      	ldr	r4, [pc, #52]	@ (80024c4 <__libc_init_array+0x3c>)
 800248e:	1b64      	subs	r4, r4, r5
 8002490:	10a4      	asrs	r4, r4, #2
 8002492:	2600      	movs	r6, #0
 8002494:	42a6      	cmp	r6, r4
 8002496:	d109      	bne.n	80024ac <__libc_init_array+0x24>
 8002498:	4d0b      	ldr	r5, [pc, #44]	@ (80024c8 <__libc_init_array+0x40>)
 800249a:	4c0c      	ldr	r4, [pc, #48]	@ (80024cc <__libc_init_array+0x44>)
 800249c:	f000 fc6e 	bl	8002d7c <_init>
 80024a0:	1b64      	subs	r4, r4, r5
 80024a2:	10a4      	asrs	r4, r4, #2
 80024a4:	2600      	movs	r6, #0
 80024a6:	42a6      	cmp	r6, r4
 80024a8:	d105      	bne.n	80024b6 <__libc_init_array+0x2e>
 80024aa:	bd70      	pop	{r4, r5, r6, pc}
 80024ac:	f855 3b04 	ldr.w	r3, [r5], #4
 80024b0:	4798      	blx	r3
 80024b2:	3601      	adds	r6, #1
 80024b4:	e7ee      	b.n	8002494 <__libc_init_array+0xc>
 80024b6:	f855 3b04 	ldr.w	r3, [r5], #4
 80024ba:	4798      	blx	r3
 80024bc:	3601      	adds	r6, #1
 80024be:	e7f2      	b.n	80024a6 <__libc_init_array+0x1e>
 80024c0:	08002e30 	.word	0x08002e30
 80024c4:	08002e30 	.word	0x08002e30
 80024c8:	08002e30 	.word	0x08002e30
 80024cc:	08002e34 	.word	0x08002e34

080024d0 <__retarget_lock_acquire_recursive>:
 80024d0:	4770      	bx	lr

080024d2 <__retarget_lock_release_recursive>:
 80024d2:	4770      	bx	lr

080024d4 <strcpy>:
 80024d4:	4603      	mov	r3, r0
 80024d6:	f811 2b01 	ldrb.w	r2, [r1], #1
 80024da:	f803 2b01 	strb.w	r2, [r3], #1
 80024de:	2a00      	cmp	r2, #0
 80024e0:	d1f9      	bne.n	80024d6 <strcpy+0x2>
 80024e2:	4770      	bx	lr

080024e4 <__ssputs_r>:
 80024e4:	e92d 47f0 	stmdb	sp!, {r4, r5, r6, r7, r8, r9, sl, lr}
 80024e8:	688e      	ldr	r6, [r1, #8]
 80024ea:	461f      	mov	r7, r3
 80024ec:	42be      	cmp	r6, r7
 80024ee:	680b      	ldr	r3, [r1, #0]
 80024f0:	4682      	mov	sl, r0
 80024f2:	460c      	mov	r4, r1
 80024f4:	4690      	mov	r8, r2
 80024f6:	d82d      	bhi.n	8002554 <__ssputs_r+0x70>
 80024f8:	f9b1 200c 	ldrsh.w	r2, [r1, #12]
 80024fc:	f412 6f90 	tst.w	r2, #1152	@ 0x480
 8002500:	d026      	beq.n	8002550 <__ssputs_r+0x6c>
 8002502:	6965      	ldr	r5, [r4, #20]
 8002504:	6909      	ldr	r1, [r1, #16]
 8002506:	eb05 0545 	add.w	r5, r5, r5, lsl #1
 800250a:	eba3 0901 	sub.w	r9, r3, r1
 800250e:	eb05 75d5 	add.w	r5, r5, r5, lsr #31
 8002512:	1c7b      	adds	r3, r7, #1
 8002514:	444b      	add	r3, r9
 8002516:	106d      	asrs	r5, r5, #1
 8002518:	429d      	cmp	r5, r3
 800251a:	bf38      	it	cc
 800251c:	461d      	movcc	r5, r3
 800251e:	0553      	lsls	r3, r2, #21
 8002520:	d527      	bpl.n	8002572 <__ssputs_r+0x8e>
 8002522:	4629      	mov	r1, r5
 8002524:	f000 f958 	bl	80027d8 <_malloc_r>
 8002528:	4606      	mov	r6, r0
 800252a:	b360      	cbz	r0, 8002586 <__ssputs_r+0xa2>
 800252c:	6921      	ldr	r1, [r4, #16]
 800252e:	464a      	mov	r2, r9
 8002530:	f000 fbc4 	bl	8002cbc <memcpy>
 8002534:	89a3      	ldrh	r3, [r4, #12]
 8002536:	f423 6390 	bic.w	r3, r3, #1152	@ 0x480
 800253a:	f043 0380 	orr.w	r3, r3, #128	@ 0x80
 800253e:	81a3      	strh	r3, [r4, #12]
 8002540:	6126      	str	r6, [r4, #16]
 8002542:	6165      	str	r5, [r4, #20]
 8002544:	444e      	add	r6, r9
 8002546:	eba5 0509 	sub.w	r5, r5, r9
 800254a:	6026      	str	r6, [r4, #0]
 800254c:	60a5      	str	r5, [r4, #8]
 800254e:	463e      	mov	r6, r7
 8002550:	42be      	cmp	r6, r7
 8002552:	d900      	bls.n	8002556 <__ssputs_r+0x72>
 8002554:	463e      	mov	r6, r7
 8002556:	6820      	ldr	r0, [r4, #0]
 8002558:	4632      	mov	r2, r6
 800255a:	4641      	mov	r1, r8
 800255c:	f000 fb84 	bl	8002c68 <memmove>
 8002560:	68a3      	ldr	r3, [r4, #8]
 8002562:	1b9b      	subs	r3, r3, r6
 8002564:	60a3      	str	r3, [r4, #8]
 8002566:	6823      	ldr	r3, [r4, #0]
 8002568:	4433      	add	r3, r6
 800256a:	6023      	str	r3, [r4, #0]
 800256c:	2000      	movs	r0, #0
 800256e:	e8bd 87f0 	ldmia.w	sp!, {r4, r5, r6, r7, r8, r9, sl, pc}
 8002572:	462a      	mov	r2, r5
 8002574:	f000 fb4a 	bl	8002c0c <_realloc_r>
 8002578:	4606      	mov	r6, r0
 800257a:	2800      	cmp	r0, #0
 800257c:	d1e0      	bne.n	8002540 <__ssputs_r+0x5c>
 800257e:	6921      	ldr	r1, [r4, #16]
 8002580:	4650      	mov	r0, sl
 8002582:	f000 fba9 	bl	8002cd8 <_free_r>
 8002586:	230c      	movs	r3, #12
 8002588:	f8ca 3000 	str.w	r3, [sl]
 800258c:	89a3      	ldrh	r3, [r4, #12]
 800258e:	f043 0340 	orr.w	r3, r3, #64	@ 0x40
 8002592:	81a3      	strh	r3, [r4, #12]
 8002594:	f04f 30ff 	mov.w	r0, #4294967295	@ 0xffffffff
 8002598:	e7e9      	b.n	800256e <__ssputs_r+0x8a>
	...

0800259c <_svfiprintf_r>:
 800259c:	e92d 4ff0 	stmdb	sp!, {r4, r5, r6, r7, r8, r9, sl, fp, lr}
 80025a0:	4698      	mov	r8, r3
 80025a2:	898b      	ldrh	r3, [r1, #12]
 80025a4:	061b      	lsls	r3, r3, #24
 80025a6:	b09d      	sub	sp, #116	@ 0x74
 80025a8:	4607      	mov	r7, r0
 80025aa:	460d      	mov	r5, r1
 80025ac:	4614      	mov	r4, r2
 80025ae:	d510      	bpl.n	80025d2 <_svfiprintf_r+0x36>
 80025b0:	690b      	ldr	r3, [r1, #16]
 80025b2:	b973      	cbnz	r3, 80025d2 <_svfiprintf_r+0x36>
 80025b4:	2140      	movs	r1, #64	@ 0x40
 80025b6:	f000 f90f 	bl	80027d8 <_malloc_r>
 80025ba:	6028      	str	r0, [r5, #0]
 80025bc:	6128      	str	r0, [r5, #16]
 80025be:	b930      	cbnz	r0, 80025ce <_svfiprintf_r+0x32>
 80025c0:	230c      	movs	r3, #12
 80025c2:	603b      	str	r3, [r7, #0]
 80025c4:	f04f 30ff 	mov.w	r0, #4294967295	@ 0xffffffff
 80025c8:	b01d      	add	sp, #116	@ 0x74
 80025ca:	e8bd 8ff0 	ldmia.w	sp!, {r4, r5, r6, r7, r8, r9, sl, fp, pc}
 80025ce:	2340      	movs	r3, #64	@ 0x40
 80025d0:	616b      	str	r3, [r5, #20]
 80025d2:	2300      	movs	r3, #0
 80025d4:	9309      	str	r3, [sp, #36]	@ 0x24
 80025d6:	2320      	movs	r3, #32
 80025d8:	f88d 3029 	strb.w	r3, [sp, #41]	@ 0x29
 80025dc:	f8cd 800c 	str.w	r8, [sp, #12]
 80025e0:	2330      	movs	r3, #48	@ 0x30
 80025e2:	f8df 819c 	ldr.w	r8, [pc, #412]	@ 8002780 <_svfiprintf_r+0x1e4>
 80025e6:	f88d 302a 	strb.w	r3, [sp, #42]	@ 0x2a
 80025ea:	f04f 0901 	mov.w	r9, #1
 80025ee:	4623      	mov	r3, r4
 80025f0:	469a      	mov	sl, r3
 80025f2:	f813 2b01 	ldrb.w	r2, [r3], #1
 80025f6:	b10a      	cbz	r2, 80025fc <_svfiprintf_r+0x60>
 80025f8:	2a25      	cmp	r2, #37	@ 0x25
 80025fa:	d1f9      	bne.n	80025f0 <_svfiprintf_r+0x54>
 80025fc:	ebba 0b04 	subs.w	fp, sl, r4
 8002600:	d00b      	beq.n	800261a <_svfiprintf_r+0x7e>
 8002602:	465b      	mov	r3, fp
 8002604:	4622      	mov	r2, r4
 8002606:	4629      	mov	r1, r5
 8002608:	4638      	mov	r0, r7
 800260a:	f7ff ff6b 	bl	80024e4 <__ssputs_r>
 800260e:	3001      	adds	r0, #1
 8002610:	f000 80a7 	beq.w	8002762 <_svfiprintf_r+0x1c6>
 8002614:	9a09      	ldr	r2, [sp, #36]	@ 0x24
 8002616:	445a      	add	r2, fp
 8002618:	9209      	str	r2, [sp, #36]	@ 0x24
 800261a:	f89a 3000 	ldrb.w	r3, [sl]
 800261e:	2b00      	cmp	r3, #0
 8002620:	f000 809f 	beq.w	8002762 <_svfiprintf_r+0x1c6>
 8002624:	2300      	movs	r3, #0
 8002626:	f04f 32ff 	mov.w	r2, #4294967295	@ 0xffffffff
 800262a:	e9cd 2305 	strd	r2, r3, [sp, #20]
 800262e:	f10a 0a01 	add.w	sl, sl, #1
 8002632:	9304      	str	r3, [sp, #16]
 8002634:	9307      	str	r3, [sp, #28]
 8002636:	f88d 3053 	strb.w	r3, [sp, #83]	@ 0x53
 800263a:	931a      	str	r3, [sp, #104]	@ 0x68
 800263c:	4654      	mov	r4, sl
 800263e:	2205      	movs	r2, #5
 8002640:	f814 1b01 	ldrb.w	r1, [r4], #1
 8002644:	484e      	ldr	r0, [pc, #312]	@ (8002780 <_svfiprintf_r+0x1e4>)
 8002646:	f7fd fdcb 	bl	80001e0 <memchr>
 800264a:	9a04      	ldr	r2, [sp, #16]
 800264c:	b9d8      	cbnz	r0, 8002686 <_svfiprintf_r+0xea>
 800264e:	06d0      	lsls	r0, r2, #27
 8002650:	bf44      	itt	mi
 8002652:	2320      	movmi	r3, #32
 8002654:	f88d 3053 	strbmi.w	r3, [sp, #83]	@ 0x53
 8002658:	0711      	lsls	r1, r2, #28
 800265a:	bf44      	itt	mi
 800265c:	232b      	movmi	r3, #43	@ 0x2b
 800265e:	f88d 3053 	strbmi.w	r3, [sp, #83]	@ 0x53
 8002662:	f89a 3000 	ldrb.w	r3, [sl]
 8002666:	2b2a      	cmp	r3, #42	@ 0x2a
 8002668:	d015      	beq.n	8002696 <_svfiprintf_r+0xfa>
 800266a:	9a07      	ldr	r2, [sp, #28]
 800266c:	4654      	mov	r4, sl
 800266e:	2000      	movs	r0, #0
 8002670:	f04f 0c0a 	mov.w	ip, #10
 8002674:	4621      	mov	r1, r4
 8002676:	f811 3b01 	ldrb.w	r3, [r1], #1
 800267a:	3b30      	subs	r3, #48	@ 0x30
 800267c:	2b09      	cmp	r3, #9
 800267e:	d94b      	bls.n	8002718 <_svfiprintf_r+0x17c>
 8002680:	b1b0      	cbz	r0, 80026b0 <_svfiprintf_r+0x114>
 8002682:	9207      	str	r2, [sp, #28]
 8002684:	e014      	b.n	80026b0 <_svfiprintf_r+0x114>
 8002686:	eba0 0308 	sub.w	r3, r0, r8
 800268a:	fa09 f303 	lsl.w	r3, r9, r3
 800268e:	4313      	orrs	r3, r2
 8002690:	9304      	str	r3, [sp, #16]
 8002692:	46a2      	mov	sl, r4
 8002694:	e7d2      	b.n	800263c <_svfiprintf_r+0xa0>
 8002696:	9b03      	ldr	r3, [sp, #12]
 8002698:	1d19      	adds	r1, r3, #4
 800269a:	681b      	ldr	r3, [r3, #0]
 800269c:	9103      	str	r1, [sp, #12]
 800269e:	2b00      	cmp	r3, #0
 80026a0:	bfbb      	ittet	lt
 80026a2:	425b      	neglt	r3, r3
 80026a4:	f042 0202 	orrlt.w	r2, r2, #2
 80026a8:	9307      	strge	r3, [sp, #28]
 80026aa:	9307      	strlt	r3, [sp, #28]
 80026ac:	bfb8      	it	lt
 80026ae:	9204      	strlt	r2, [sp, #16]
 80026b0:	7823      	ldrb	r3, [r4, #0]
 80026b2:	2b2e      	cmp	r3, #46	@ 0x2e
 80026b4:	d10a      	bne.n	80026cc <_svfiprintf_r+0x130>
 80026b6:	7863      	ldrb	r3, [r4, #1]
 80026b8:	2b2a      	cmp	r3, #42	@ 0x2a
 80026ba:	d132      	bne.n	8002722 <_svfiprintf_r+0x186>
 80026bc:	9b03      	ldr	r3, [sp, #12]
 80026be:	1d1a      	adds	r2, r3, #4
 80026c0:	681b      	ldr	r3, [r3, #0]
 80026c2:	9203      	str	r2, [sp, #12]
 80026c4:	ea43 73e3 	orr.w	r3, r3, r3, asr #31
 80026c8:	3402      	adds	r4, #2
 80026ca:	9305      	str	r3, [sp, #20]
 80026cc:	f8df a0c0 	ldr.w	sl, [pc, #192]	@ 8002790 <_svfiprintf_r+0x1f4>
 80026d0:	7821      	ldrb	r1, [r4, #0]
 80026d2:	2203      	movs	r2, #3
 80026d4:	4650      	mov	r0, sl
 80026d6:	f7fd fd83 	bl	80001e0 <memchr>
 80026da:	b138      	cbz	r0, 80026ec <_svfiprintf_r+0x150>
 80026dc:	9b04      	ldr	r3, [sp, #16]
 80026de:	eba0 000a 	sub.w	r0, r0, sl
 80026e2:	2240      	movs	r2, #64	@ 0x40
 80026e4:	4082      	lsls	r2, r0
 80026e6:	4313      	orrs	r3, r2
 80026e8:	3401      	adds	r4, #1
 80026ea:	9304      	str	r3, [sp, #16]
 80026ec:	f814 1b01 	ldrb.w	r1, [r4], #1
 80026f0:	4824      	ldr	r0, [pc, #144]	@ (8002784 <_svfiprintf_r+0x1e8>)
 80026f2:	f88d 1028 	strb.w	r1, [sp, #40]	@ 0x28
 80026f6:	2206      	movs	r2, #6
 80026f8:	f7fd fd72 	bl	80001e0 <memchr>
 80026fc:	2800      	cmp	r0, #0
 80026fe:	d036      	beq.n	800276e <_svfiprintf_r+0x1d2>
 8002700:	4b21      	ldr	r3, [pc, #132]	@ (8002788 <_svfiprintf_r+0x1ec>)
 8002702:	bb1b      	cbnz	r3, 800274c <_svfiprintf_r+0x1b0>
 8002704:	9b03      	ldr	r3, [sp, #12]
 8002706:	3307      	adds	r3, #7
 8002708:	f023 0307 	bic.w	r3, r3, #7
 800270c:	3308      	adds	r3, #8
 800270e:	9303      	str	r3, [sp, #12]
 8002710:	9b09      	ldr	r3, [sp, #36]	@ 0x24
 8002712:	4433      	add	r3, r6
 8002714:	9309      	str	r3, [sp, #36]	@ 0x24
 8002716:	e76a      	b.n	80025ee <_svfiprintf_r+0x52>
 8002718:	fb0c 3202 	mla	r2, ip, r2, r3
 800271c:	460c      	mov	r4, r1
 800271e:	2001      	movs	r0, #1
 8002720:	e7a8      	b.n	8002674 <_svfiprintf_r+0xd8>
 8002722:	2300      	movs	r3, #0
 8002724:	3401      	adds	r4, #1
 8002726:	9305      	str	r3, [sp, #20]
 8002728:	4619      	mov	r1, r3
 800272a:	f04f 0c0a 	mov.w	ip, #10
 800272e:	4620      	mov	r0, r4
 8002730:	f810 2b01 	ldrb.w	r2, [r0], #1
 8002734:	3a30      	subs	r2, #48	@ 0x30
 8002736:	2a09      	cmp	r2, #9
 8002738:	d903      	bls.n	8002742 <_svfiprintf_r+0x1a6>
 800273a:	2b00      	cmp	r3, #0
 800273c:	d0c6      	beq.n	80026cc <_svfiprintf_r+0x130>
 800273e:	9105      	str	r1, [sp, #20]
 8002740:	e7c4      	b.n	80026cc <_svfiprintf_r+0x130>
 8002742:	fb0c 2101 	mla	r1, ip, r1, r2
 8002746:	4604      	mov	r4, r0
 8002748:	2301      	movs	r3, #1
 800274a:	e7f0      	b.n	800272e <_svfiprintf_r+0x192>
 800274c:	ab03      	add	r3, sp, #12
 800274e:	9300      	str	r3, [sp, #0]
 8002750:	462a      	mov	r2, r5
 8002752:	4b0e      	ldr	r3, [pc, #56]	@ (800278c <_svfiprintf_r+0x1f0>)
 8002754:	a904      	add	r1, sp, #16
 8002756:	4638      	mov	r0, r7
 8002758:	f3af 8000 	nop.w
 800275c:	1c42      	adds	r2, r0, #1
 800275e:	4606      	mov	r6, r0
 8002760:	d1d6      	bne.n	8002710 <_svfiprintf_r+0x174>
 8002762:	89ab      	ldrh	r3, [r5, #12]
 8002764:	065b      	lsls	r3, r3, #25
 8002766:	f53f af2d 	bmi.w	80025c4 <_svfiprintf_r+0x28>
 800276a:	9809      	ldr	r0, [sp, #36]	@ 0x24
 800276c:	e72c      	b.n	80025c8 <_svfiprintf_r+0x2c>
 800276e:	ab03      	add	r3, sp, #12
 8002770:	9300      	str	r3, [sp, #0]
 8002772:	462a      	mov	r2, r5
 8002774:	4b05      	ldr	r3, [pc, #20]	@ (800278c <_svfiprintf_r+0x1f0>)
 8002776:	a904      	add	r1, sp, #16
 8002778:	4638      	mov	r0, r7
 800277a:	f000 f91b 	bl	80029b4 <_printf_i>
 800277e:	e7ed      	b.n	800275c <_svfiprintf_r+0x1c0>
 8002780:	08002df4 	.word	0x08002df4
 8002784:	08002dfe 	.word	0x08002dfe
 8002788:	00000000 	.word	0x00000000
 800278c:	080024e5 	.word	0x080024e5
 8002790:	08002dfa 	.word	0x08002dfa

08002794 <sbrk_aligned>:
 8002794:	b570      	push	{r4, r5, r6, lr}
 8002796:	4e0f      	ldr	r6, [pc, #60]	@ (80027d4 <sbrk_aligned+0x40>)
 8002798:	460c      	mov	r4, r1
 800279a:	6831      	ldr	r1, [r6, #0]
 800279c:	4605      	mov	r5, r0
 800279e:	b911      	cbnz	r1, 80027a6 <sbrk_aligned+0x12>
 80027a0:	f000 fa7c 	bl	8002c9c <_sbrk_r>
 80027a4:	6030      	str	r0, [r6, #0]
 80027a6:	4621      	mov	r1, r4
 80027a8:	4628      	mov	r0, r5
 80027aa:	f000 fa77 	bl	8002c9c <_sbrk_r>
 80027ae:	1c43      	adds	r3, r0, #1
 80027b0:	d103      	bne.n	80027ba <sbrk_aligned+0x26>
 80027b2:	f04f 34ff 	mov.w	r4, #4294967295	@ 0xffffffff
 80027b6:	4620      	mov	r0, r4
 80027b8:	bd70      	pop	{r4, r5, r6, pc}
 80027ba:	1cc4      	adds	r4, r0, #3
 80027bc:	f024 0403 	bic.w	r4, r4, #3
 80027c0:	42a0      	cmp	r0, r4
 80027c2:	d0f8      	beq.n	80027b6 <sbrk_aligned+0x22>
 80027c4:	1a21      	subs	r1, r4, r0
 80027c6:	4628      	mov	r0, r5
 80027c8:	f000 fa68 	bl	8002c9c <_sbrk_r>
 80027cc:	3001      	adds	r0, #1
 80027ce:	d1f2      	bne.n	80027b6 <sbrk_aligned+0x22>
 80027d0:	e7ef      	b.n	80027b2 <sbrk_aligned+0x1e>
 80027d2:	bf00      	nop
 80027d4:	200002d0 	.word	0x200002d0

080027d8 <_malloc_r>:
 80027d8:	e92d 43f8 	stmdb	sp!, {r3, r4, r5, r6, r7, r8, r9, lr}
 80027dc:	1ccd      	adds	r5, r1, #3
 80027de:	f025 0503 	bic.w	r5, r5, #3
 80027e2:	3508      	adds	r5, #8
 80027e4:	2d0c      	cmp	r5, #12
 80027e6:	bf38      	it	cc
 80027e8:	250c      	movcc	r5, #12
 80027ea:	2d00      	cmp	r5, #0
 80027ec:	4606      	mov	r6, r0
 80027ee:	db01      	blt.n	80027f4 <_malloc_r+0x1c>
 80027f0:	42a9      	cmp	r1, r5
 80027f2:	d904      	bls.n	80027fe <_malloc_r+0x26>
 80027f4:	230c      	movs	r3, #12
 80027f6:	6033      	str	r3, [r6, #0]
 80027f8:	2000      	movs	r0, #0
 80027fa:	e8bd 83f8 	ldmia.w	sp!, {r3, r4, r5, r6, r7, r8, r9, pc}
 80027fe:	f8df 80d4 	ldr.w	r8, [pc, #212]	@ 80028d4 <_malloc_r+0xfc>
 8002802:	f000 f9f7 	bl	8002bf4 <__malloc_lock>
 8002806:	f8d8 3000 	ldr.w	r3, [r8]
 800280a:	461c      	mov	r4, r3
 800280c:	bb44      	cbnz	r4, 8002860 <_malloc_r+0x88>
 800280e:	4629      	mov	r1, r5
 8002810:	4630      	mov	r0, r6
 8002812:	f7ff ffbf 	bl	8002794 <sbrk_aligned>
 8002816:	1c43      	adds	r3, r0, #1
 8002818:	4604      	mov	r4, r0
 800281a:	d158      	bne.n	80028ce <_malloc_r+0xf6>
 800281c:	f8d8 4000 	ldr.w	r4, [r8]
 8002820:	4627      	mov	r7, r4
 8002822:	2f00      	cmp	r7, #0
 8002824:	d143      	bne.n	80028ae <_malloc_r+0xd6>
 8002826:	2c00      	cmp	r4, #0
 8002828:	d04b      	beq.n	80028c2 <_malloc_r+0xea>
 800282a:	6823      	ldr	r3, [r4, #0]
 800282c:	4639      	mov	r1, r7
 800282e:	4630      	mov	r0, r6
 8002830:	eb04 0903 	add.w	r9, r4, r3
 8002834:	f000 fa32 	bl	8002c9c <_sbrk_r>
 8002838:	4581      	cmp	r9, r0
 800283a:	d142      	bne.n	80028c2 <_malloc_r+0xea>
 800283c:	6821      	ldr	r1, [r4, #0]
 800283e:	1a6d      	subs	r5, r5, r1
 8002840:	4629      	mov	r1, r5
 8002842:	4630      	mov	r0, r6
 8002844:	f7ff ffa6 	bl	8002794 <sbrk_aligned>
 8002848:	3001      	adds	r0, #1
 800284a:	d03a      	beq.n	80028c2 <_malloc_r+0xea>
 800284c:	6823      	ldr	r3, [r4, #0]
 800284e:	442b      	add	r3, r5
 8002850:	6023      	str	r3, [r4, #0]
 8002852:	f8d8 3000 	ldr.w	r3, [r8]
 8002856:	685a      	ldr	r2, [r3, #4]
 8002858:	bb62      	cbnz	r2, 80028b4 <_malloc_r+0xdc>
 800285a:	f8c8 7000 	str.w	r7, [r8]
 800285e:	e00f      	b.n	8002880 <_malloc_r+0xa8>
 8002860:	6822      	ldr	r2, [r4, #0]
 8002862:	1b52      	subs	r2, r2, r5
 8002864:	d420      	bmi.n	80028a8 <_malloc_r+0xd0>
 8002866:	2a0b      	cmp	r2, #11
 8002868:	d917      	bls.n	800289a <_malloc_r+0xc2>
 800286a:	1961      	adds	r1, r4, r5
 800286c:	42a3      	cmp	r3, r4
 800286e:	6025      	str	r5, [r4, #0]
 8002870:	bf18      	it	ne
 8002872:	6059      	strne	r1, [r3, #4]
 8002874:	6863      	ldr	r3, [r4, #4]
 8002876:	bf08      	it	eq
 8002878:	f8c8 1000 	streq.w	r1, [r8]
 800287c:	5162      	str	r2, [r4, r5]
 800287e:	604b      	str	r3, [r1, #4]
 8002880:	4630      	mov	r0, r6
 8002882:	f000 f9bd 	bl	8002c00 <__malloc_unlock>
 8002886:	f104 000b 	add.w	r0, r4, #11
 800288a:	1d23      	adds	r3, r4, #4
 800288c:	f020 0007 	bic.w	r0, r0, #7
 8002890:	1ac2      	subs	r2, r0, r3
 8002892:	bf1c      	itt	ne
 8002894:	1a1b      	subne	r3, r3, r0
 8002896:	50a3      	strne	r3, [r4, r2]
 8002898:	e7af      	b.n	80027fa <_malloc_r+0x22>
 800289a:	6862      	ldr	r2, [r4, #4]
 800289c:	42a3      	cmp	r3, r4
 800289e:	bf0c      	ite	eq
 80028a0:	f8c8 2000 	streq.w	r2, [r8]
 80028a4:	605a      	strne	r2, [r3, #4]
 80028a6:	e7eb      	b.n	8002880 <_malloc_r+0xa8>
 80028a8:	4623      	mov	r3, r4
 80028aa:	6864      	ldr	r4, [r4, #4]
 80028ac:	e7ae      	b.n	800280c <_malloc_r+0x34>
 80028ae:	463c      	mov	r4, r7
 80028b0:	687f      	ldr	r7, [r7, #4]
 80028b2:	e7b6      	b.n	8002822 <_malloc_r+0x4a>
 80028b4:	461a      	mov	r2, r3
 80028b6:	685b      	ldr	r3, [r3, #4]
 80028b8:	42a3      	cmp	r3, r4
 80028ba:	d1fb      	bne.n	80028b4 <_malloc_r+0xdc>
 80028bc:	2300      	movs	r3, #0
 80028be:	6053      	str	r3, [r2, #4]
 80028c0:	e7de      	b.n	8002880 <_malloc_r+0xa8>
 80028c2:	230c      	movs	r3, #12
 80028c4:	6033      	str	r3, [r6, #0]
 80028c6:	4630      	mov	r0, r6
 80028c8:	f000 f99a 	bl	8002c00 <__malloc_unlock>
 80028cc:	e794      	b.n	80027f8 <_malloc_r+0x20>
 80028ce:	6005      	str	r5, [r0, #0]
 80028d0:	e7d6      	b.n	8002880 <_malloc_r+0xa8>
 80028d2:	bf00      	nop
 80028d4:	200002d4 	.word	0x200002d4

080028d8 <_printf_common>:
 80028d8:	e92d 47f0 	stmdb	sp!, {r4, r5, r6, r7, r8, r9, sl, lr}
 80028dc:	4616      	mov	r6, r2
 80028de:	4698      	mov	r8, r3
 80028e0:	688a      	ldr	r2, [r1, #8]
 80028e2:	690b      	ldr	r3, [r1, #16]
 80028e4:	f8dd 9020 	ldr.w	r9, [sp, #32]
 80028e8:	4293      	cmp	r3, r2
 80028ea:	bfb8      	it	lt
 80028ec:	4613      	movlt	r3, r2
 80028ee:	6033      	str	r3, [r6, #0]
 80028f0:	f891 2043 	ldrb.w	r2, [r1, #67]	@ 0x43
 80028f4:	4607      	mov	r7, r0
 80028f6:	460c      	mov	r4, r1
 80028f8:	b10a      	cbz	r2, 80028fe <_printf_common+0x26>
 80028fa:	3301      	adds	r3, #1
 80028fc:	6033      	str	r3, [r6, #0]
 80028fe:	6823      	ldr	r3, [r4, #0]
 8002900:	0699      	lsls	r1, r3, #26
 8002902:	bf42      	ittt	mi
 8002904:	6833      	ldrmi	r3, [r6, #0]
 8002906:	3302      	addmi	r3, #2
 8002908:	6033      	strmi	r3, [r6, #0]
 800290a:	6825      	ldr	r5, [r4, #0]
 800290c:	f015 0506 	ands.w	r5, r5, #6
 8002910:	d106      	bne.n	8002920 <_printf_common+0x48>
 8002912:	f104 0a19 	add.w	sl, r4, #25
 8002916:	68e3      	ldr	r3, [r4, #12]
 8002918:	6832      	ldr	r2, [r6, #0]
 800291a:	1a9b      	subs	r3, r3, r2
 800291c:	42ab      	cmp	r3, r5
 800291e:	dc26      	bgt.n	800296e <_printf_common+0x96>
 8002920:	f894 3043 	ldrb.w	r3, [r4, #67]	@ 0x43
 8002924:	6822      	ldr	r2, [r4, #0]
 8002926:	3b00      	subs	r3, #0
 8002928:	bf18      	it	ne
 800292a:	2301      	movne	r3, #1
 800292c:	0692      	lsls	r2, r2, #26
 800292e:	d42b      	bmi.n	8002988 <_printf_common+0xb0>
 8002930:	f104 0243 	add.w	r2, r4, #67	@ 0x43
 8002934:	4641      	mov	r1, r8
 8002936:	4638      	mov	r0, r7
 8002938:	47c8      	blx	r9
 800293a:	3001      	adds	r0, #1
 800293c:	d01e      	beq.n	800297c <_printf_common+0xa4>
 800293e:	6823      	ldr	r3, [r4, #0]
 8002940:	6922      	ldr	r2, [r4, #16]
 8002942:	f003 0306 	and.w	r3, r3, #6
 8002946:	2b04      	cmp	r3, #4
 8002948:	bf02      	ittt	eq
 800294a:	68e5      	ldreq	r5, [r4, #12]
 800294c:	6833      	ldreq	r3, [r6, #0]
 800294e:	1aed      	subeq	r5, r5, r3
 8002950:	68a3      	ldr	r3, [r4, #8]
 8002952:	bf0c      	ite	eq
 8002954:	ea25 75e5 	biceq.w	r5, r5, r5, asr #31
 8002958:	2500      	movne	r5, #0
 800295a:	4293      	cmp	r3, r2
 800295c:	bfc4      	itt	gt
 800295e:	1a9b      	subgt	r3, r3, r2
 8002960:	18ed      	addgt	r5, r5, r3
 8002962:	2600      	movs	r6, #0
 8002964:	341a      	adds	r4, #26
 8002966:	42b5      	cmp	r5, r6
 8002968:	d11a      	bne.n	80029a0 <_printf_common+0xc8>
 800296a:	2000      	movs	r0, #0
 800296c:	e008      	b.n	8002980 <_printf_common+0xa8>
 800296e:	2301      	movs	r3, #1
 8002970:	4652      	mov	r2, sl
 8002972:	4641      	mov	r1, r8
 8002974:	4638      	mov	r0, r7
 8002976:	47c8      	blx	r9
 8002978:	3001      	adds	r0, #1
 800297a:	d103      	bne.n	8002984 <_printf_common+0xac>
 800297c:	f04f 30ff 	mov.w	r0, #4294967295	@ 0xffffffff
 8002980:	e8bd 87f0 	ldmia.w	sp!, {r4, r5, r6, r7, r8, r9, sl, pc}
 8002984:	3501      	adds	r5, #1
 8002986:	e7c6      	b.n	8002916 <_printf_common+0x3e>
 8002988:	18e1      	adds	r1, r4, r3
 800298a:	1c5a      	adds	r2, r3, #1
 800298c:	2030      	movs	r0, #48	@ 0x30
 800298e:	f881 0043 	strb.w	r0, [r1, #67]	@ 0x43
 8002992:	4422      	add	r2, r4
 8002994:	f894 1045 	ldrb.w	r1, [r4, #69]	@ 0x45
 8002998:	f882 1043 	strb.w	r1, [r2, #67]	@ 0x43
 800299c:	3302      	adds	r3, #2
 800299e:	e7c7      	b.n	8002930 <_printf_common+0x58>
 80029a0:	2301      	movs	r3, #1
 80029a2:	4622      	mov	r2, r4
 80029a4:	4641      	mov	r1, r8
 80029a6:	4638      	mov	r0, r7
 80029a8:	47c8      	blx	r9
 80029aa:	3001      	adds	r0, #1
 80029ac:	d0e6      	beq.n	800297c <_printf_common+0xa4>
 80029ae:	3601      	adds	r6, #1
 80029b0:	e7d9      	b.n	8002966 <_printf_common+0x8e>
	...

080029b4 <_printf_i>:
 80029b4:	e92d 47ff 	stmdb	sp!, {r0, r1, r2, r3, r4, r5, r6, r7, r8, r9, sl, lr}
 80029b8:	7e0f      	ldrb	r7, [r1, #24]
 80029ba:	9e0c      	ldr	r6, [sp, #48]	@ 0x30
 80029bc:	2f78      	cmp	r7, #120	@ 0x78
 80029be:	4691      	mov	r9, r2
 80029c0:	4680      	mov	r8, r0
 80029c2:	460c      	mov	r4, r1
 80029c4:	469a      	mov	sl, r3
 80029c6:	f101 0243 	add.w	r2, r1, #67	@ 0x43
 80029ca:	d807      	bhi.n	80029dc <_printf_i+0x28>
 80029cc:	2f62      	cmp	r7, #98	@ 0x62
 80029ce:	d80a      	bhi.n	80029e6 <_printf_i+0x32>
 80029d0:	2f00      	cmp	r7, #0
 80029d2:	f000 80d2 	beq.w	8002b7a <_printf_i+0x1c6>
 80029d6:	2f58      	cmp	r7, #88	@ 0x58
 80029d8:	f000 80b9 	beq.w	8002b4e <_printf_i+0x19a>
 80029dc:	f104 0642 	add.w	r6, r4, #66	@ 0x42
 80029e0:	f884 7042 	strb.w	r7, [r4, #66]	@ 0x42
 80029e4:	e03a      	b.n	8002a5c <_printf_i+0xa8>
 80029e6:	f1a7 0363 	sub.w	r3, r7, #99	@ 0x63
 80029ea:	2b15      	cmp	r3, #21
 80029ec:	d8f6      	bhi.n	80029dc <_printf_i+0x28>
 80029ee:	a101      	add	r1, pc, #4	@ (adr r1, 80029f4 <_printf_i+0x40>)
 80029f0:	f851 f023 	ldr.w	pc, [r1, r3, lsl #2]
 80029f4:	08002a4d 	.word	0x08002a4d
 80029f8:	08002a61 	.word	0x08002a61
 80029fc:	080029dd 	.word	0x080029dd
 8002a00:	080029dd 	.word	0x080029dd
 8002a04:	080029dd 	.word	0x080029dd
 8002a08:	080029dd 	.word	0x080029dd
 8002a0c:	08002a61 	.word	0x08002a61
 8002a10:	080029dd 	.word	0x080029dd
 8002a14:	080029dd 	.word	0x080029dd
 8002a18:	080029dd 	.word	0x080029dd
 8002a1c:	080029dd 	.word	0x080029dd
 8002a20:	08002b61 	.word	0x08002b61
 8002a24:	08002a8b 	.word	0x08002a8b
 8002a28:	08002b1b 	.word	0x08002b1b
 8002a2c:	080029dd 	.word	0x080029dd
 8002a30:	080029dd 	.word	0x080029dd
 8002a34:	08002b83 	.word	0x08002b83
 8002a38:	080029dd 	.word	0x080029dd
 8002a3c:	08002a8b 	.word	0x08002a8b
 8002a40:	080029dd 	.word	0x080029dd
 8002a44:	080029dd 	.word	0x080029dd
 8002a48:	08002b23 	.word	0x08002b23
 8002a4c:	6833      	ldr	r3, [r6, #0]
 8002a4e:	1d1a      	adds	r2, r3, #4
 8002a50:	681b      	ldr	r3, [r3, #0]
 8002a52:	6032      	str	r2, [r6, #0]
 8002a54:	f104 0642 	add.w	r6, r4, #66	@ 0x42
 8002a58:	f884 3042 	strb.w	r3, [r4, #66]	@ 0x42
 8002a5c:	2301      	movs	r3, #1
 8002a5e:	e09d      	b.n	8002b9c <_printf_i+0x1e8>
 8002a60:	6833      	ldr	r3, [r6, #0]
 8002a62:	6820      	ldr	r0, [r4, #0]
 8002a64:	1d19      	adds	r1, r3, #4
 8002a66:	6031      	str	r1, [r6, #0]
 8002a68:	0606      	lsls	r6, r0, #24
 8002a6a:	d501      	bpl.n	8002a70 <_printf_i+0xbc>
 8002a6c:	681d      	ldr	r5, [r3, #0]
 8002a6e:	e003      	b.n	8002a78 <_printf_i+0xc4>
 8002a70:	0645      	lsls	r5, r0, #25
 8002a72:	d5fb      	bpl.n	8002a6c <_printf_i+0xb8>
 8002a74:	f9b3 5000 	ldrsh.w	r5, [r3]
 8002a78:	2d00      	cmp	r5, #0
 8002a7a:	da03      	bge.n	8002a84 <_printf_i+0xd0>
 8002a7c:	232d      	movs	r3, #45	@ 0x2d
 8002a7e:	426d      	negs	r5, r5
 8002a80:	f884 3043 	strb.w	r3, [r4, #67]	@ 0x43
 8002a84:	4859      	ldr	r0, [pc, #356]	@ (8002bec <_printf_i+0x238>)
 8002a86:	230a      	movs	r3, #10
 8002a88:	e011      	b.n	8002aae <_printf_i+0xfa>
 8002a8a:	6821      	ldr	r1, [r4, #0]
 8002a8c:	6833      	ldr	r3, [r6, #0]
 8002a8e:	0608      	lsls	r0, r1, #24
 8002a90:	f853 5b04 	ldr.w	r5, [r3], #4
 8002a94:	d402      	bmi.n	8002a9c <_printf_i+0xe8>
 8002a96:	0649      	lsls	r1, r1, #25
 8002a98:	bf48      	it	mi
 8002a9a:	b2ad      	uxthmi	r5, r5
 8002a9c:	2f6f      	cmp	r7, #111	@ 0x6f
 8002a9e:	4853      	ldr	r0, [pc, #332]	@ (8002bec <_printf_i+0x238>)
 8002aa0:	6033      	str	r3, [r6, #0]
 8002aa2:	bf14      	ite	ne
 8002aa4:	230a      	movne	r3, #10
 8002aa6:	2308      	moveq	r3, #8
 8002aa8:	2100      	movs	r1, #0
 8002aaa:	f884 1043 	strb.w	r1, [r4, #67]	@ 0x43
 8002aae:	6866      	ldr	r6, [r4, #4]
 8002ab0:	60a6      	str	r6, [r4, #8]
 8002ab2:	2e00      	cmp	r6, #0
 8002ab4:	bfa2      	ittt	ge
 8002ab6:	6821      	ldrge	r1, [r4, #0]
 8002ab8:	f021 0104 	bicge.w	r1, r1, #4
 8002abc:	6021      	strge	r1, [r4, #0]
 8002abe:	b90d      	cbnz	r5, 8002ac4 <_printf_i+0x110>
 8002ac0:	2e00      	cmp	r6, #0
 8002ac2:	d04b      	beq.n	8002b5c <_printf_i+0x1a8>
 8002ac4:	4616      	mov	r6, r2
 8002ac6:	fbb5 f1f3 	udiv	r1, r5, r3
 8002aca:	fb03 5711 	mls	r7, r3, r1, r5
 8002ace:	5dc7      	ldrb	r7, [r0, r7]
 8002ad0:	f806 7d01 	strb.w	r7, [r6, #-1]!
 8002ad4:	462f      	mov	r7, r5
 8002ad6:	42bb      	cmp	r3, r7
 8002ad8:	460d      	mov	r5, r1
 8002ada:	d9f4      	bls.n	8002ac6 <_printf_i+0x112>
 8002adc:	2b08      	cmp	r3, #8
 8002ade:	d10b      	bne.n	8002af8 <_printf_i+0x144>
 8002ae0:	6823      	ldr	r3, [r4, #0]
 8002ae2:	07df      	lsls	r7, r3, #31
 8002ae4:	d508      	bpl.n	8002af8 <_printf_i+0x144>
 8002ae6:	6923      	ldr	r3, [r4, #16]
 8002ae8:	6861      	ldr	r1, [r4, #4]
 8002aea:	4299      	cmp	r1, r3
 8002aec:	bfde      	ittt	le
 8002aee:	2330      	movle	r3, #48	@ 0x30
 8002af0:	f806 3c01 	strble.w	r3, [r6, #-1]
 8002af4:	f106 36ff 	addle.w	r6, r6, #4294967295	@ 0xffffffff
 8002af8:	1b92      	subs	r2, r2, r6
 8002afa:	6122      	str	r2, [r4, #16]
 8002afc:	f8cd a000 	str.w	sl, [sp]
 8002b00:	464b      	mov	r3, r9
 8002b02:	aa03      	add	r2, sp, #12
 8002b04:	4621      	mov	r1, r4
 8002b06:	4640      	mov	r0, r8
 8002b08:	f7ff fee6 	bl	80028d8 <_printf_common>
 8002b0c:	3001      	adds	r0, #1
 8002b0e:	d14a      	bne.n	8002ba6 <_printf_i+0x1f2>
 8002b10:	f04f 30ff 	mov.w	r0, #4294967295	@ 0xffffffff
 8002b14:	b004      	add	sp, #16
 8002b16:	e8bd 87f0 	ldmia.w	sp!, {r4, r5, r6, r7, r8, r9, sl, pc}
 8002b1a:	6823      	ldr	r3, [r4, #0]
 8002b1c:	f043 0320 	orr.w	r3, r3, #32
 8002b20:	6023      	str	r3, [r4, #0]
 8002b22:	4833      	ldr	r0, [pc, #204]	@ (8002bf0 <_printf_i+0x23c>)
 8002b24:	2778      	movs	r7, #120	@ 0x78
 8002b26:	f884 7045 	strb.w	r7, [r4, #69]	@ 0x45
 8002b2a:	6823      	ldr	r3, [r4, #0]
 8002b2c:	6831      	ldr	r1, [r6, #0]
 8002b2e:	061f      	lsls	r7, r3, #24
 8002b30:	f851 5b04 	ldr.w	r5, [r1], #4
 8002b34:	d402      	bmi.n	8002b3c <_printf_i+0x188>
 8002b36:	065f      	lsls	r7, r3, #25
 8002b38:	bf48      	it	mi
 8002b3a:	b2ad      	uxthmi	r5, r5
 8002b3c:	6031      	str	r1, [r6, #0]
 8002b3e:	07d9      	lsls	r1, r3, #31
 8002b40:	bf44      	itt	mi
 8002b42:	f043 0320 	orrmi.w	r3, r3, #32
 8002b46:	6023      	strmi	r3, [r4, #0]
 8002b48:	b11d      	cbz	r5, 8002b52 <_printf_i+0x19e>
 8002b4a:	2310      	movs	r3, #16
 8002b4c:	e7ac      	b.n	8002aa8 <_printf_i+0xf4>
 8002b4e:	4827      	ldr	r0, [pc, #156]	@ (8002bec <_printf_i+0x238>)
 8002b50:	e7e9      	b.n	8002b26 <_printf_i+0x172>
 8002b52:	6823      	ldr	r3, [r4, #0]
 8002b54:	f023 0320 	bic.w	r3, r3, #32
 8002b58:	6023      	str	r3, [r4, #0]
 8002b5a:	e7f6      	b.n	8002b4a <_printf_i+0x196>
 8002b5c:	4616      	mov	r6, r2
 8002b5e:	e7bd      	b.n	8002adc <_printf_i+0x128>
 8002b60:	6833      	ldr	r3, [r6, #0]
 8002b62:	6825      	ldr	r5, [r4, #0]
 8002b64:	6961      	ldr	r1, [r4, #20]
 8002b66:	1d18      	adds	r0, r3, #4
 8002b68:	6030      	str	r0, [r6, #0]
 8002b6a:	062e      	lsls	r6, r5, #24
 8002b6c:	681b      	ldr	r3, [r3, #0]
 8002b6e:	d501      	bpl.n	8002b74 <_printf_i+0x1c0>
 8002b70:	6019      	str	r1, [r3, #0]
 8002b72:	e002      	b.n	8002b7a <_printf_i+0x1c6>
 8002b74:	0668      	lsls	r0, r5, #25
 8002b76:	d5fb      	bpl.n	8002b70 <_printf_i+0x1bc>
 8002b78:	8019      	strh	r1, [r3, #0]
 8002b7a:	2300      	movs	r3, #0
 8002b7c:	6123      	str	r3, [r4, #16]
 8002b7e:	4616      	mov	r6, r2
 8002b80:	e7bc      	b.n	8002afc <_printf_i+0x148>
 8002b82:	6833      	ldr	r3, [r6, #0]
 8002b84:	1d1a      	adds	r2, r3, #4
 8002b86:	6032      	str	r2, [r6, #0]
 8002b88:	681e      	ldr	r6, [r3, #0]
 8002b8a:	6862      	ldr	r2, [r4, #4]
 8002b8c:	2100      	movs	r1, #0
 8002b8e:	4630      	mov	r0, r6
 8002b90:	f7fd fb26 	bl	80001e0 <memchr>
 8002b94:	b108      	cbz	r0, 8002b9a <_printf_i+0x1e6>
 8002b96:	1b80      	subs	r0, r0, r6
 8002b98:	6060      	str	r0, [r4, #4]
 8002b9a:	6863      	ldr	r3, [r4, #4]
 8002b9c:	6123      	str	r3, [r4, #16]
 8002b9e:	2300      	movs	r3, #0
 8002ba0:	f884 3043 	strb.w	r3, [r4, #67]	@ 0x43
 8002ba4:	e7aa      	b.n	8002afc <_printf_i+0x148>
 8002ba6:	6923      	ldr	r3, [r4, #16]
 8002ba8:	4632      	mov	r2, r6
 8002baa:	4649      	mov	r1, r9
 8002bac:	4640      	mov	r0, r8
 8002bae:	47d0      	blx	sl
 8002bb0:	3001      	adds	r0, #1
 8002bb2:	d0ad      	beq.n	8002b10 <_printf_i+0x15c>
 8002bb4:	6823      	ldr	r3, [r4, #0]
 8002bb6:	079b      	lsls	r3, r3, #30
 8002bb8:	d413      	bmi.n	8002be2 <_printf_i+0x22e>
 8002bba:	68e0      	ldr	r0, [r4, #12]
 8002bbc:	9b03      	ldr	r3, [sp, #12]
 8002bbe:	4298      	cmp	r0, r3
 8002bc0:	bfb8      	it	lt
 8002bc2:	4618      	movlt	r0, r3
 8002bc4:	e7a6      	b.n	8002b14 <_printf_i+0x160>
 8002bc6:	2301      	movs	r3, #1
 8002bc8:	4632      	mov	r2, r6
 8002bca:	4649      	mov	r1, r9
 8002bcc:	4640      	mov	r0, r8
 8002bce:	47d0      	blx	sl
 8002bd0:	3001      	adds	r0, #1
 8002bd2:	d09d      	beq.n	8002b10 <_printf_i+0x15c>
 8002bd4:	3501      	adds	r5, #1
 8002bd6:	68e3      	ldr	r3, [r4, #12]
 8002bd8:	9903      	ldr	r1, [sp, #12]
 8002bda:	1a5b      	subs	r3, r3, r1
 8002bdc:	42ab      	cmp	r3, r5
 8002bde:	dcf2      	bgt.n	8002bc6 <_printf_i+0x212>
 8002be0:	e7eb      	b.n	8002bba <_printf_i+0x206>
 8002be2:	2500      	movs	r5, #0
 8002be4:	f104 0619 	add.w	r6, r4, #25
 8002be8:	e7f5      	b.n	8002bd6 <_printf_i+0x222>
 8002bea:	bf00      	nop
 8002bec:	08002e05 	.word	0x08002e05
 8002bf0:	08002e16 	.word	0x08002e16

08002bf4 <__malloc_lock>:
 8002bf4:	4801      	ldr	r0, [pc, #4]	@ (8002bfc <__malloc_lock+0x8>)
 8002bf6:	f7ff bc6b 	b.w	80024d0 <__retarget_lock_acquire_recursive>
 8002bfa:	bf00      	nop
 8002bfc:	200002cc 	.word	0x200002cc

08002c00 <__malloc_unlock>:
 8002c00:	4801      	ldr	r0, [pc, #4]	@ (8002c08 <__malloc_unlock+0x8>)
 8002c02:	f7ff bc66 	b.w	80024d2 <__retarget_lock_release_recursive>
 8002c06:	bf00      	nop
 8002c08:	200002cc 	.word	0x200002cc

08002c0c <_realloc_r>:
 8002c0c:	e92d 41f0 	stmdb	sp!, {r4, r5, r6, r7, r8, lr}
 8002c10:	4680      	mov	r8, r0
 8002c12:	4615      	mov	r5, r2
 8002c14:	460c      	mov	r4, r1
 8002c16:	b921      	cbnz	r1, 8002c22 <_realloc_r+0x16>
 8002c18:	e8bd 41f0 	ldmia.w	sp!, {r4, r5, r6, r7, r8, lr}
 8002c1c:	4611      	mov	r1, r2
 8002c1e:	f7ff bddb 	b.w	80027d8 <_malloc_r>
 8002c22:	b92a      	cbnz	r2, 8002c30 <_realloc_r+0x24>
 8002c24:	f000 f858 	bl	8002cd8 <_free_r>
 8002c28:	2400      	movs	r4, #0
 8002c2a:	4620      	mov	r0, r4
 8002c2c:	e8bd 81f0 	ldmia.w	sp!, {r4, r5, r6, r7, r8, pc}
 8002c30:	f000 f89c 	bl	8002d6c <_malloc_usable_size_r>
 8002c34:	4285      	cmp	r5, r0
 8002c36:	4606      	mov	r6, r0
 8002c38:	d802      	bhi.n	8002c40 <_realloc_r+0x34>
 8002c3a:	ebb5 0f50 	cmp.w	r5, r0, lsr #1
 8002c3e:	d8f4      	bhi.n	8002c2a <_realloc_r+0x1e>
 8002c40:	4629      	mov	r1, r5
 8002c42:	4640      	mov	r0, r8
 8002c44:	f7ff fdc8 	bl	80027d8 <_malloc_r>
 8002c48:	4607      	mov	r7, r0
 8002c4a:	2800      	cmp	r0, #0
 8002c4c:	d0ec      	beq.n	8002c28 <_realloc_r+0x1c>
 8002c4e:	42b5      	cmp	r5, r6
 8002c50:	462a      	mov	r2, r5
 8002c52:	4621      	mov	r1, r4
 8002c54:	bf28      	it	cs
 8002c56:	4632      	movcs	r2, r6
 8002c58:	f000 f830 	bl	8002cbc <memcpy>
 8002c5c:	4621      	mov	r1, r4
 8002c5e:	4640      	mov	r0, r8
 8002c60:	f000 f83a 	bl	8002cd8 <_free_r>
 8002c64:	463c      	mov	r4, r7
 8002c66:	e7e0      	b.n	8002c2a <_realloc_r+0x1e>

08002c68 <memmove>:
 8002c68:	4288      	cmp	r0, r1
 8002c6a:	b510      	push	{r4, lr}
 8002c6c:	eb01 0402 	add.w	r4, r1, r2
 8002c70:	d902      	bls.n	8002c78 <memmove+0x10>
 8002c72:	4284      	cmp	r4, r0
 8002c74:	4623      	mov	r3, r4
 8002c76:	d807      	bhi.n	8002c88 <memmove+0x20>
 8002c78:	1e43      	subs	r3, r0, #1
 8002c7a:	42a1      	cmp	r1, r4
 8002c7c:	d008      	beq.n	8002c90 <memmove+0x28>
 8002c7e:	f811 2b01 	ldrb.w	r2, [r1], #1
 8002c82:	f803 2f01 	strb.w	r2, [r3, #1]!
 8002c86:	e7f8      	b.n	8002c7a <memmove+0x12>
 8002c88:	4402      	add	r2, r0
 8002c8a:	4601      	mov	r1, r0
 8002c8c:	428a      	cmp	r2, r1
 8002c8e:	d100      	bne.n	8002c92 <memmove+0x2a>
 8002c90:	bd10      	pop	{r4, pc}
 8002c92:	f813 4d01 	ldrb.w	r4, [r3, #-1]!
 8002c96:	f802 4d01 	strb.w	r4, [r2, #-1]!
 8002c9a:	e7f7      	b.n	8002c8c <memmove+0x24>

08002c9c <_sbrk_r>:
 8002c9c:	b538      	push	{r3, r4, r5, lr}
 8002c9e:	4d06      	ldr	r5, [pc, #24]	@ (8002cb8 <_sbrk_r+0x1c>)
 8002ca0:	2300      	movs	r3, #0
 8002ca2:	4604      	mov	r4, r0
 8002ca4:	4608      	mov	r0, r1
 8002ca6:	602b      	str	r3, [r5, #0]
 8002ca8:	f7fe f936 	bl	8000f18 <_sbrk>
 8002cac:	1c43      	adds	r3, r0, #1
 8002cae:	d102      	bne.n	8002cb6 <_sbrk_r+0x1a>
 8002cb0:	682b      	ldr	r3, [r5, #0]
 8002cb2:	b103      	cbz	r3, 8002cb6 <_sbrk_r+0x1a>
 8002cb4:	6023      	str	r3, [r4, #0]
 8002cb6:	bd38      	pop	{r3, r4, r5, pc}
 8002cb8:	200002d8 	.word	0x200002d8

08002cbc <memcpy>:
 8002cbc:	440a      	add	r2, r1
 8002cbe:	4291      	cmp	r1, r2
 8002cc0:	f100 33ff 	add.w	r3, r0, #4294967295	@ 0xffffffff
 8002cc4:	d100      	bne.n	8002cc8 <memcpy+0xc>
 8002cc6:	4770      	bx	lr
 8002cc8:	b510      	push	{r4, lr}
 8002cca:	f811 4b01 	ldrb.w	r4, [r1], #1
 8002cce:	f803 4f01 	strb.w	r4, [r3, #1]!
 8002cd2:	4291      	cmp	r1, r2
 8002cd4:	d1f9      	bne.n	8002cca <memcpy+0xe>
 8002cd6:	bd10      	pop	{r4, pc}

08002cd8 <_free_r>:
 8002cd8:	b538      	push	{r3, r4, r5, lr}
 8002cda:	4605      	mov	r5, r0
 8002cdc:	2900      	cmp	r1, #0
 8002cde:	d041      	beq.n	8002d64 <_free_r+0x8c>
 8002ce0:	f851 3c04 	ldr.w	r3, [r1, #-4]
 8002ce4:	1f0c      	subs	r4, r1, #4
 8002ce6:	2b00      	cmp	r3, #0
 8002ce8:	bfb8      	it	lt
 8002cea:	18e4      	addlt	r4, r4, r3
 8002cec:	f7ff ff82 	bl	8002bf4 <__malloc_lock>
 8002cf0:	4a1d      	ldr	r2, [pc, #116]	@ (8002d68 <_free_r+0x90>)
 8002cf2:	6813      	ldr	r3, [r2, #0]
 8002cf4:	b933      	cbnz	r3, 8002d04 <_free_r+0x2c>
 8002cf6:	6063      	str	r3, [r4, #4]
 8002cf8:	6014      	str	r4, [r2, #0]
 8002cfa:	4628      	mov	r0, r5
 8002cfc:	e8bd 4038 	ldmia.w	sp!, {r3, r4, r5, lr}
 8002d00:	f7ff bf7e 	b.w	8002c00 <__malloc_unlock>
 8002d04:	42a3      	cmp	r3, r4
 8002d06:	d908      	bls.n	8002d1a <_free_r+0x42>
 8002d08:	6820      	ldr	r0, [r4, #0]
 8002d0a:	1821      	adds	r1, r4, r0
 8002d0c:	428b      	cmp	r3, r1
 8002d0e:	bf01      	itttt	eq
 8002d10:	6819      	ldreq	r1, [r3, #0]
 8002d12:	685b      	ldreq	r3, [r3, #4]
 8002d14:	1809      	addeq	r1, r1, r0
 8002d16:	6021      	streq	r1, [r4, #0]
 8002d18:	e7ed      	b.n	8002cf6 <_free_r+0x1e>
 8002d1a:	461a      	mov	r2, r3
 8002d1c:	685b      	ldr	r3, [r3, #4]
 8002d1e:	b10b      	cbz	r3, 8002d24 <_free_r+0x4c>
 8002d20:	42a3      	cmp	r3, r4
 8002d22:	d9fa      	bls.n	8002d1a <_free_r+0x42>
 8002d24:	6811      	ldr	r1, [r2, #0]
 8002d26:	1850      	adds	r0, r2, r1
 8002d28:	42a0      	cmp	r0, r4
 8002d2a:	d10b      	bne.n	8002d44 <_free_r+0x6c>
 8002d2c:	6820      	ldr	r0, [r4, #0]
 8002d2e:	4401      	add	r1, r0
 8002d30:	1850      	adds	r0, r2, r1
 8002d32:	4283      	cmp	r3, r0
 8002d34:	6011      	str	r1, [r2, #0]
 8002d36:	d1e0      	bne.n	8002cfa <_free_r+0x22>
 8002d38:	6818      	ldr	r0, [r3, #0]
 8002d3a:	685b      	ldr	r3, [r3, #4]
 8002d3c:	6053      	str	r3, [r2, #4]
 8002d3e:	4408      	add	r0, r1
 8002d40:	6010      	str	r0, [r2, #0]
 8002d42:	e7da      	b.n	8002cfa <_free_r+0x22>
 8002d44:	d902      	bls.n	8002d4c <_free_r+0x74>
 8002d46:	230c      	movs	r3, #12
 8002d48:	602b      	str	r3, [r5, #0]
 8002d4a:	e7d6      	b.n	8002cfa <_free_r+0x22>
 8002d4c:	6820      	ldr	r0, [r4, #0]
 8002d4e:	1821      	adds	r1, r4, r0
 8002d50:	428b      	cmp	r3, r1
 8002d52:	bf04      	itt	eq
 8002d54:	6819      	ldreq	r1, [r3, #0]
 8002d56:	685b      	ldreq	r3, [r3, #4]
 8002d58:	6063      	str	r3, [r4, #4]
 8002d5a:	bf04      	itt	eq
 8002d5c:	1809      	addeq	r1, r1, r0
 8002d5e:	6021      	streq	r1, [r4, #0]
 8002d60:	6054      	str	r4, [r2, #4]
 8002d62:	e7ca      	b.n	8002cfa <_free_r+0x22>
 8002d64:	bd38      	pop	{r3, r4, r5, pc}
 8002d66:	bf00      	nop
 8002d68:	200002d4 	.word	0x200002d4

08002d6c <_malloc_usable_size_r>:
 8002d6c:	f851 3c04 	ldr.w	r3, [r1, #-4]
 8002d70:	1f18      	subs	r0, r3, #4
 8002d72:	2b00      	cmp	r3, #0
 8002d74:	bfbc      	itt	lt
 8002d76:	580b      	ldrlt	r3, [r1, r0]
 8002d78:	18c0      	addlt	r0, r0, r3
 8002d7a:	4770      	bx	lr

08002d7c <_init>:
 8002d7c:	b5f8      	push	{r3, r4, r5, r6, r7, lr}
 8002d7e:	bf00      	nop
 8002d80:	bcf8      	pop	{r3, r4, r5, r6, r7}
 8002d82:	bc08      	pop	{r3}
 8002d84:	469e      	mov	lr, r3
 8002d86:	4770      	bx	lr

08002d88 <_fini>:
 8002d88:	b5f8      	push	{r3, r4, r5, r6, r7, lr}
 8002d8a:	bf00      	nop
 8002d8c:	bcf8      	pop	{r3, r4, r5, r6, r7}
 8002d8e:	bc08      	pop	{r3}
 8002d90:	469e      	mov	lr, r3
 8002d92:	4770      	bx	lr
